00000000  8CCB              mov ebx,cs
00000002  E8F9050000        call 0x600
00000007  EBFE              jmp short 0x7
00000009  FA                cli
0000000A  6A00              push byte +0x0
0000000C  6A00              push byte +0x0
0000000E  E9EA000000        jmp 0xfd
00000013  FA                cli
00000014  6A00              push byte +0x0
00000016  6A01              push byte +0x1
00000018  E9E0000000        jmp 0xfd
0000001D  FA                cli
0000001E  6A00              push byte +0x0
00000020  6A02              push byte +0x2
00000022  E9D6000000        jmp 0xfd
00000027  FA                cli
00000028  6A00              push byte +0x0
0000002A  6A03              push byte +0x3
0000002C  E9CC000000        jmp 0xfd
00000031  FA                cli
00000032  6A00              push byte +0x0
00000034  6A04              push byte +0x4
00000036  E9C2000000        jmp 0xfd
0000003B  FA                cli
0000003C  6A00              push byte +0x0
0000003E  6A05              push byte +0x5
00000040  E9B8000000        jmp 0xfd
00000045  FA                cli
00000046  6A00              push byte +0x0
00000048  6A06              push byte +0x6
0000004A  E9AE000000        jmp 0xfd
0000004F  FA                cli
00000050  6A00              push byte +0x0
00000052  6A07              push byte +0x7
00000054  E9A4000000        jmp 0xfd
00000059  FA                cli
0000005A  6A08              push byte +0x8
0000005C  E99C000000        jmp 0xfd
00000061  FA                cli
00000062  6A00              push byte +0x0
00000064  6A09              push byte +0x9
00000066  E992000000        jmp 0xfd
0000006B  FA                cli
0000006C  6A0A              push byte +0xa
0000006E  E98A000000        jmp 0xfd
00000073  FA                cli
00000074  6A0B              push byte +0xb
00000076  E982000000        jmp 0xfd
0000007B  FA                cli
0000007C  6A0C              push byte +0xc
0000007E  EB7D              jmp short 0xfd
00000080  FA                cli
00000081  6A0D              push byte +0xd
00000083  EB78              jmp short 0xfd
00000085  FA                cli
00000086  6A0E              push byte +0xe
00000088  EB73              jmp short 0xfd
0000008A  FA                cli
0000008B  6A00              push byte +0x0
0000008D  6A0F              push byte +0xf
0000008F  EB6C              jmp short 0xfd
00000091  FA                cli
00000092  6A00              push byte +0x0
00000094  6A10              push byte +0x10
00000096  EB65              jmp short 0xfd
00000098  FA                cli
00000099  6A11              push byte +0x11
0000009B  EB60              jmp short 0xfd
0000009D  FA                cli
0000009E  6A00              push byte +0x0
000000A0  6A12              push byte +0x12
000000A2  EB59              jmp short 0xfd
000000A4  FA                cli
000000A5  6A00              push byte +0x0
000000A7  6A13              push byte +0x13
000000A9  EB52              jmp short 0xfd
000000AB  FA                cli
000000AC  6A00              push byte +0x0
000000AE  6A14              push byte +0x14
000000B0  EB4B              jmp short 0xfd
000000B2  FA                cli
000000B3  6A00              push byte +0x0
000000B5  6A15              push byte +0x15
000000B7  EB44              jmp short 0xfd
000000B9  FA                cli
000000BA  6A00              push byte +0x0
000000BC  6A16              push byte +0x16
000000BE  EB3D              jmp short 0xfd
000000C0  FA                cli
000000C1  6A00              push byte +0x0
000000C3  6A17              push byte +0x17
000000C5  EB36              jmp short 0xfd
000000C7  FA                cli
000000C8  6A00              push byte +0x0
000000CA  6A18              push byte +0x18
000000CC  EB2F              jmp short 0xfd
000000CE  FA                cli
000000CF  6A00              push byte +0x0
000000D1  6A19              push byte +0x19
000000D3  EB28              jmp short 0xfd
000000D5  FA                cli
000000D6  6A00              push byte +0x0
000000D8  6A1A              push byte +0x1a
000000DA  EB21              jmp short 0xfd
000000DC  FA                cli
000000DD  6A00              push byte +0x0
000000DF  6A1B              push byte +0x1b
000000E1  EB1A              jmp short 0xfd
000000E3  FA                cli
000000E4  6A00              push byte +0x0
000000E6  6A1C              push byte +0x1c
000000E8  EB13              jmp short 0xfd
000000EA  FA                cli
000000EB  6A00              push byte +0x0
000000ED  6A1D              push byte +0x1d
000000EF  EB0C              jmp short 0xfd
000000F1  FA                cli
000000F2  6A1E              push byte +0x1e
000000F4  EB07              jmp short 0xfd
000000F6  FA                cli
000000F7  6A00              push byte +0x0
000000F9  6A1F              push byte +0x1f
000000FB  EB00              jmp short 0xfd
000000FD  60                pusha
000000FE  1E                push ds
000000FF  06                push es
00000100  0FA0              push fs
00000102  0FA8              push gs
00000104  66B81000          mov ax,0x10
00000108  8ED8              mov ds,eax
0000010A  8EC0              mov es,eax
0000010C  8EE0              mov fs,eax
0000010E  8EE8              mov gs,eax
00000110  89E0              mov eax,esp
00000112  50                push eax
00000113  B862150000        mov eax,0x1562
00000118  FFD0              call eax
0000011A  58                pop eax
0000011B  0FA9              pop gs
0000011D  0FA1              pop fs
0000011F  07                pop es
00000120  1F                pop ds
00000121  61                popa
00000122  83C408            add esp,byte +0x8
00000125  CF                iret
00000126  6690              xchg ax,ax
00000128  55                push ebp
00000129  89E5              mov ebp,esp
0000012B  83EC18            sub esp,byte +0x18
0000012E  8B5508            mov edx,[ebp+0x8]
00000131  8B4510            mov eax,[ebp+0x10]
00000134  8855EC            mov [ebp-0x14],dl
00000137  8845E8            mov [ebp-0x18],al
0000013A  0FB645EC          movzx eax,byte [ebp-0x14]
0000013E  C1E003            shl eax,byte 0x3
00000141  0500500000        add eax,0x5000
00000146  8945FC            mov [ebp-0x4],eax
00000149  8B450C            mov eax,[ebp+0xc]
0000014C  89C2              mov edx,eax
0000014E  8B45FC            mov eax,[ebp-0x4]
00000151  668910            mov [eax],dx
00000154  8B45FC            mov eax,[ebp-0x4]
00000157  66C740020800      mov word [eax+0x2],0x8
0000015D  8B45FC            mov eax,[ebp-0x4]
00000160  0FB655E8          movzx edx,byte [ebp-0x18]
00000164  885005            mov [eax+0x5],dl
00000167  8B450C            mov eax,[ebp+0xc]
0000016A  C1E810            shr eax,byte 0x10
0000016D  89C2              mov edx,eax
0000016F  8B45FC            mov eax,[ebp-0x4]
00000172  66895006          mov [eax+0x6],dx
00000176  8B45FC            mov eax,[ebp-0x4]
00000179  C6400400          mov byte [eax+0x4],0x0
0000017D  90                nop
0000017E  C9                leave
0000017F  C3                ret
00000180  55                push ebp
00000181  89E5              mov ebp,esp
00000183  83EC18            sub esp,byte +0x18
00000186  66C70500580000FF  mov word [dword 0x5800],0x7ff
         -07
0000018F  B800500000        mov eax,0x5000
00000194  A304580000        mov [0x5804],eax
00000199  C744240800080000  mov dword [esp+0x8],0x800
000001A1  C744240400000000  mov dword [esp+0x4],0x0
000001A9  C7042400500000    mov dword [esp],0x5000
000001B0  E89E0C0000        call 0xe53
000001B5  E80A000000        call 0x1c4
000001BA  0F011D00580000    lidt [dword 0x5800]
000001C1  90                nop
000001C2  C9                leave
000001C3  C3                ret
000001C4  55                push ebp
000001C5  89E5              mov ebp,esp
000001C7  83EC18            sub esp,byte +0x18
000001CA  C74424088E000000  mov dword [esp+0x8],0x8e
000001D2  C744240409100000  mov dword [esp+0x4],0x1009
000001DA  C7042400000000    mov dword [esp],0x0
000001E1  E842FFFFFF        call 0x128
000001E6  B809100000        mov eax,0x1009
000001EB  89442404          mov [esp+0x4],eax
000001EF  C7042400300000    mov dword [esp],0x3000
000001F6  E8B6080000        call 0xab1
000001FB  C74424088E000000  mov dword [esp+0x8],0x8e
00000203  C744240413100000  mov dword [esp+0x4],0x1013
0000020B  C7042401000000    mov dword [esp],0x1
00000212  E811FFFFFF        call 0x128
00000217  C74424088E000000  mov dword [esp+0x8],0x8e
0000021F  C74424041D100000  mov dword [esp+0x4],0x101d
00000227  C7042402000000    mov dword [esp],0x2
0000022E  E8F5FEFFFF        call 0x128
00000233  C74424088E000000  mov dword [esp+0x8],0x8e
0000023B  C744240427100000  mov dword [esp+0x4],0x1027
00000243  C7042403000000    mov dword [esp],0x3
0000024A  E8D9FEFFFF        call 0x128
0000024F  C74424088E000000  mov dword [esp+0x8],0x8e
00000257  C744240431100000  mov dword [esp+0x4],0x1031
0000025F  C7042404000000    mov dword [esp],0x4
00000266  E8BDFEFFFF        call 0x128
0000026B  C74424088E000000  mov dword [esp+0x8],0x8e
00000273  C74424043B100000  mov dword [esp+0x4],0x103b
0000027B  C7042405000000    mov dword [esp],0x5
00000282  E8A1FEFFFF        call 0x128
00000287  C74424088E000000  mov dword [esp+0x8],0x8e
0000028F  C744240445100000  mov dword [esp+0x4],0x1045
00000297  C7042406000000    mov dword [esp],0x6
0000029E  E885FEFFFF        call 0x128
000002A3  C74424088E000000  mov dword [esp+0x8],0x8e
000002AB  C74424044F100000  mov dword [esp+0x4],0x104f
000002B3  C7042407000000    mov dword [esp],0x7
000002BA  E869FEFFFF        call 0x128
000002BF  C74424088E000000  mov dword [esp+0x8],0x8e
000002C7  C744240459100000  mov dword [esp+0x4],0x1059
000002CF  C7042408000000    mov dword [esp],0x8
000002D6  E84DFEFFFF        call 0x128
000002DB  C74424088E000000  mov dword [esp+0x8],0x8e
000002E3  C744240461100000  mov dword [esp+0x4],0x1061
000002EB  C7042409000000    mov dword [esp],0x9
000002F2  E831FEFFFF        call 0x128
000002F7  C74424088E000000  mov dword [esp+0x8],0x8e
000002FF  C74424046B100000  mov dword [esp+0x4],0x106b
00000307  C704240A000000    mov dword [esp],0xa
0000030E  E815FEFFFF        call 0x128
00000313  C74424088E000000  mov dword [esp+0x8],0x8e
0000031B  C744240473100000  mov dword [esp+0x4],0x1073
00000323  C704240B000000    mov dword [esp],0xb
0000032A  E8F9FDFFFF        call 0x128
0000032F  C74424088E000000  mov dword [esp+0x8],0x8e
00000337  C74424047B100000  mov dword [esp+0x4],0x107b
0000033F  C704240C000000    mov dword [esp],0xc
00000346  E8DDFDFFFF        call 0x128
0000034B  C74424088E000000  mov dword [esp+0x8],0x8e
00000353  C744240480100000  mov dword [esp+0x4],0x1080
0000035B  C704240D000000    mov dword [esp],0xd
00000362  E8C1FDFFFF        call 0x128
00000367  C74424088E000000  mov dword [esp+0x8],0x8e
0000036F  C744240485100000  mov dword [esp+0x4],0x1085
00000377  C704240E000000    mov dword [esp],0xe
0000037E  E8A5FDFFFF        call 0x128
00000383  C74424088E000000  mov dword [esp+0x8],0x8e
0000038B  C74424048A100000  mov dword [esp+0x4],0x108a
00000393  C704240F000000    mov dword [esp],0xf
0000039A  E889FDFFFF        call 0x128
0000039F  C74424088E000000  mov dword [esp+0x8],0x8e
000003A7  C744240491100000  mov dword [esp+0x4],0x1091
000003AF  C7042410000000    mov dword [esp],0x10
000003B6  E86DFDFFFF        call 0x128
000003BB  C74424088E000000  mov dword [esp+0x8],0x8e
000003C3  C744240498100000  mov dword [esp+0x4],0x1098
000003CB  C7042411000000    mov dword [esp],0x11
000003D2  E851FDFFFF        call 0x128
000003D7  C74424088E000000  mov dword [esp+0x8],0x8e
000003DF  C74424049D100000  mov dword [esp+0x4],0x109d
000003E7  C7042412000000    mov dword [esp],0x12
000003EE  E835FDFFFF        call 0x128
000003F3  C74424088E000000  mov dword [esp+0x8],0x8e
000003FB  C7442404A4100000  mov dword [esp+0x4],0x10a4
00000403  C7042413000000    mov dword [esp],0x13
0000040A  E819FDFFFF        call 0x128
0000040F  C74424088E000000  mov dword [esp+0x8],0x8e
00000417  C7442404AB100000  mov dword [esp+0x4],0x10ab
0000041F  C7042414000000    mov dword [esp],0x14
00000426  E8FDFCFFFF        call 0x128
0000042B  C74424088E000000  mov dword [esp+0x8],0x8e
00000433  C7442404B2100000  mov dword [esp+0x4],0x10b2
0000043B  C7042415000000    mov dword [esp],0x15
00000442  E8E1FCFFFF        call 0x128
00000447  C74424088E000000  mov dword [esp+0x8],0x8e
0000044F  C7442404B9100000  mov dword [esp+0x4],0x10b9
00000457  C7042416000000    mov dword [esp],0x16
0000045E  E8C5FCFFFF        call 0x128
00000463  C74424088E000000  mov dword [esp+0x8],0x8e
0000046B  C7442404C0100000  mov dword [esp+0x4],0x10c0
00000473  C7042417000000    mov dword [esp],0x17
0000047A  E8A9FCFFFF        call 0x128
0000047F  C74424088E000000  mov dword [esp+0x8],0x8e
00000487  C7442404C7100000  mov dword [esp+0x4],0x10c7
0000048F  C7042418000000    mov dword [esp],0x18
00000496  E88DFCFFFF        call 0x128
0000049B  C74424088E000000  mov dword [esp+0x8],0x8e
000004A3  C7442404CE100000  mov dword [esp+0x4],0x10ce
000004AB  C7042419000000    mov dword [esp],0x19
000004B2  E871FCFFFF        call 0x128
000004B7  C74424088E000000  mov dword [esp+0x8],0x8e
000004BF  C7442404D5100000  mov dword [esp+0x4],0x10d5
000004C7  C704241A000000    mov dword [esp],0x1a
000004CE  E855FCFFFF        call 0x128
000004D3  C74424088E000000  mov dword [esp+0x8],0x8e
000004DB  C7442404DC100000  mov dword [esp+0x4],0x10dc
000004E3  C704241B000000    mov dword [esp],0x1b
000004EA  E839FCFFFF        call 0x128
000004EF  C74424088E000000  mov dword [esp+0x8],0x8e
000004F7  C7442404E3100000  mov dword [esp+0x4],0x10e3
000004FF  C704241C000000    mov dword [esp],0x1c
00000506  E81DFCFFFF        call 0x128
0000050B  C74424088E000000  mov dword [esp+0x8],0x8e
00000513  C7442404EA100000  mov dword [esp+0x4],0x10ea
0000051B  C704241D000000    mov dword [esp],0x1d
00000522  E801FCFFFF        call 0x128
00000527  C74424088E000000  mov dword [esp+0x8],0x8e
0000052F  C7442404F1100000  mov dword [esp+0x4],0x10f1
00000537  C704241E000000    mov dword [esp],0x1e
0000053E  E8E5FBFFFF        call 0x128
00000543  C74424088E000000  mov dword [esp+0x8],0x8e
0000054B  C7442404F6100000  mov dword [esp+0x4],0x10f6
00000553  C704241F000000    mov dword [esp],0x1f
0000055A  E8C9FBFFFF        call 0x128
0000055F  90                nop
00000560  C9                leave
00000561  C3                ret
00000562  55                push ebp
00000563  89E5              mov ebp,esp
00000565  83EC18            sub esp,byte +0x18
00000568  8B4508            mov eax,[ebp+0x8]
0000056B  8B4030            mov eax,[eax+0x30]
0000056E  83F81F            cmp eax,byte +0x1f
00000571  0F8784000000      ja near 0x5fb
00000577  8B4508            mov eax,[ebp+0x8]
0000057A  8B4030            mov eax,[eax+0x30]
0000057D  83F812            cmp eax,byte +0x12
00000580  7626              jna 0x5a8
00000582  C744240C00000000  mov dword [esp+0xc],0x0
0000058A  C744240800000000  mov dword [esp+0x8],0x0
00000592  C744240400000000  mov dword [esp+0x4],0x0
0000059A  C7042436310000    mov dword [esp],0x3136
000005A1  E852040000        call 0x9f8
000005A6  EB2D              jmp short 0x5d5
000005A8  8B4508            mov eax,[ebp+0x8]
000005AB  8B4030            mov eax,[eax+0x30]
000005AE  8B048500200000    mov eax,[eax*4+0x2000]
000005B5  C744240C00000000  mov dword [esp+0xc],0x0
000005BD  C744240800000000  mov dword [esp+0x8],0x0
000005C5  C744240400000000  mov dword [esp+0x4],0x0
000005CD  890424            mov [esp],eax
000005D0  E823040000        call 0x9f8
000005D5  C744240C00000000  mov dword [esp+0xc],0x0
000005DD  C744240800000000  mov dword [esp+0x8],0x0
000005E5  C744240400000000  mov dword [esp+0x4],0x0
000005ED  C704243F310000    mov dword [esp],0x313f
000005F4  E8FF030000        call 0x9f8
000005F9  EBFE              jmp short 0x5f9
000005FB  90                nop
000005FC  C9                leave
000005FD  C3                ret
000005FE  90                nop
000005FF  90                nop
00000600  55                push ebp
00000601  89E5              mov ebp,esp
00000603  83EC08            sub esp,byte +0x8
00000606  E803000000        call 0x60e
0000060B  90                nop
0000060C  C9                leave
0000060D  C3                ret
0000060E  55                push ebp
0000060F  89E5              mov ebp,esp
00000611  83EC08            sub esp,byte +0x8
00000614  E867FBFFFF        call 0x180
00000619  90                nop
0000061A  C9                leave
0000061B  C3                ret
0000061C  55                push ebp
0000061D  89E5              mov ebp,esp
0000061F  83EC14            sub esp,byte +0x14
00000622  8B4508            mov eax,[ebp+0x8]
00000625  668945EC          mov [ebp-0x14],ax
00000629  0FB745EC          movzx eax,word [ebp-0x14]
0000062D  89C2              mov edx,eax
0000062F  EC                in al,dx
00000630  8845FF            mov [ebp-0x1],al
00000633  0FB645FF          movzx eax,byte [ebp-0x1]
00000637  C9                leave
00000638  C3                ret
00000639  55                push ebp
0000063A  89E5              mov ebp,esp
0000063C  83EC08            sub esp,byte +0x8
0000063F  8B5508            mov edx,[ebp+0x8]
00000642  8B450C            mov eax,[ebp+0xc]
00000645  668955FC          mov [ebp-0x4],dx
00000649  8845F8            mov [ebp-0x8],al
0000064C  0FB645F8          movzx eax,byte [ebp-0x8]
00000650  0FB755FC          movzx edx,word [ebp-0x4]
00000654  EE                out dx,al
00000655  90                nop
00000656  C9                leave
00000657  C3                ret
00000658  55                push ebp
00000659  89E5              mov ebp,esp
0000065B  83EC14            sub esp,byte +0x14
0000065E  8B4508            mov eax,[ebp+0x8]
00000661  668945EC          mov [ebp-0x14],ax
00000665  0FB745EC          movzx eax,word [ebp-0x14]
00000669  89C2              mov edx,eax
0000066B  66ED              in ax,dx
0000066D  668945FE          mov [ebp-0x2],ax
00000671  0FB745FE          movzx eax,word [ebp-0x2]
00000675  C9                leave
00000676  C3                ret
00000677  55                push ebp
00000678  89E5              mov ebp,esp
0000067A  83EC08            sub esp,byte +0x8
0000067D  8B5508            mov edx,[ebp+0x8]
00000680  8B450C            mov eax,[ebp+0xc]
00000683  668955FC          mov [ebp-0x4],dx
00000687  668945F8          mov [ebp-0x8],ax
0000068B  0FB745F8          movzx eax,word [ebp-0x8]
0000068F  0FB755FC          movzx edx,word [ebp-0x4]
00000693  66EF              out dx,ax
00000695  90                nop
00000696  C9                leave
00000697  C3                ret
00000698  55                push ebp
00000699  89E5              mov ebp,esp
0000069B  83EC38            sub esp,byte +0x38
0000069E  8B5508            mov edx,[ebp+0x8]
000006A1  8B4514            mov eax,[ebp+0x14]
000006A4  8855E4            mov [ebp-0x1c],dl
000006A7  8845E0            mov [ebp-0x20],al
000006AA  C745F000800B00    mov dword [ebp-0x10],0xb8000
000006B1  807DE000          cmp byte [ebp-0x20],0x0
000006B5  7504              jnz 0x6bb
000006B7  C645E00F          mov byte [ebp-0x20],0xf
000006BB  837D1000          cmp dword [ebp+0x10],byte +0x0
000006BF  781D              js 0x6de
000006C1  837D0C00          cmp dword [ebp+0xc],byte +0x0
000006C5  7817              js 0x6de
000006C7  8B4510            mov eax,[ebp+0x10]
000006CA  89442404          mov [esp+0x4],eax
000006CE  8B450C            mov eax,[ebp+0xc]
000006D1  890424            mov [esp],eax
000006D4  E822010000        call 0x7fb
000006D9  8945F4            mov [ebp-0xc],eax
000006DC  EB08              jmp short 0x6e6
000006DE  E833010000        call 0x816
000006E3  8945F4            mov [ebp-0xc],eax
000006E6  8B45F4            mov eax,[ebp-0xc]
000006E9  890424            mov [esp],eax
000006EC  E862050000        call 0xc53
000006F1  8945F4            mov [ebp-0xc],eax
000006F4  807DE40A          cmp byte [ebp-0x1c],0xa
000006F8  7533              jnz 0x72d
000006FA  8B4DF4            mov ecx,[ebp-0xc]
000006FD  BA67666666        mov edx,0x66666667
00000702  89C8              mov eax,ecx
00000704  F7EA              imul edx
00000706  C1FA06            sar edx,byte 0x6
00000709  89C8              mov eax,ecx
0000070B  C1F81F            sar eax,byte 0x1f
0000070E  29C2              sub edx,eax
00000710  89D0              mov eax,edx
00000712  8945EC            mov [ebp-0x14],eax
00000715  C74424044F000000  mov dword [esp+0x4],0x4f
0000071D  8B45EC            mov eax,[ebp-0x14]
00000720  890424            mov [esp],eax
00000723  E8D3000000        call 0x7fb
00000728  8945F4            mov [ebp-0xc],eax
0000072B  EB1F              jmp short 0x74c
0000072D  8B55F4            mov edx,[ebp-0xc]
00000730  8B45F0            mov eax,[ebp-0x10]
00000733  01C2              add edx,eax
00000735  0FB645E4          movzx eax,byte [ebp-0x1c]
00000739  8802              mov [edx],al
0000073B  8B45F4            mov eax,[ebp-0xc]
0000073E  8D5001            lea edx,[eax+0x1]
00000741  8B45F0            mov eax,[ebp-0x10]
00000744  01C2              add edx,eax
00000746  0FB645E0          movzx eax,byte [ebp-0x20]
0000074A  8802              mov [edx],al
0000074C  8345F402          add dword [ebp-0xc],byte +0x2
00000750  8B45F4            mov eax,[ebp-0xc]
00000753  890424            mov [esp],eax
00000756  E817010000        call 0x872
0000075B  90                nop
0000075C  C9                leave
0000075D  C3                ret
0000075E  55                push ebp
0000075F  89E5              mov ebp,esp
00000761  83EC10            sub esp,byte +0x10
00000764  C745F800800B00    mov dword [ebp-0x8],0xb8000
0000076B  C645F780          mov byte [ebp-0x9],0x80
0000076F  C745FC00000000    mov dword [ebp-0x4],0x0
00000776  EB26              jmp short 0x79e
00000778  8B45FC            mov eax,[ebp-0x4]
0000077B  01C0              add eax,eax
0000077D  8D5001            lea edx,[eax+0x1]
00000780  8B45F8            mov eax,[ebp-0x8]
00000783  01C2              add edx,eax
00000785  8B45FC            mov eax,[ebp-0x4]
00000788  01C0              add eax,eax
0000078A  8D4801            lea ecx,[eax+0x1]
0000078D  8B45F8            mov eax,[ebp-0x8]
00000790  01C8              add eax,ecx
00000792  0FB600            movzx eax,byte [eax]
00000795  0A45F7            or al,[ebp-0x9]
00000798  8802              mov [edx],al
0000079A  8345FC01          add dword [ebp-0x4],byte +0x1
0000079E  817DFCCF070000    cmp dword [ebp-0x4],0x7cf
000007A5  7ED1              jng 0x778
000007A7  90                nop
000007A8  C9                leave
000007A9  C3                ret
000007AA  55                push ebp
000007AB  89E5              mov ebp,esp
000007AD  83EC10            sub esp,byte +0x10
000007B0  C745F800800B00    mov dword [ebp-0x8],0xb8000
000007B7  C645F780          mov byte [ebp-0x9],0x80
000007BB  C745FC00000000    mov dword [ebp-0x4],0x0
000007C2  EB2B              jmp short 0x7ef
000007C4  8B45FC            mov eax,[ebp-0x4]
000007C7  01C0              add eax,eax
000007C9  8D5001            lea edx,[eax+0x1]
000007CC  8B45F8            mov eax,[ebp-0x8]
000007CF  01D0              add eax,edx
000007D1  8B55FC            mov edx,[ebp-0x4]
000007D4  01D2              add edx,edx
000007D6  8D4A01            lea ecx,[edx+0x1]
000007D9  8B55F8            mov edx,[ebp-0x8]
000007DC  01CA              add edx,ecx
000007DE  0FB612            movzx edx,byte [edx]
000007E1  0FB64DF7          movzx ecx,byte [ebp-0x9]
000007E5  F7D1              not ecx
000007E7  21CA              and edx,ecx
000007E9  8810              mov [eax],dl
000007EB  8345FC01          add dword [ebp-0x4],byte +0x1
000007EF  817DFCCF070000    cmp dword [ebp-0x4],0x7cf
000007F6  7ECC              jng 0x7c4
000007F8  90                nop
000007F9  C9                leave
000007FA  C3                ret
000007FB  55                push ebp
000007FC  89E5              mov ebp,esp
000007FE  8B5508            mov edx,[ebp+0x8]
00000801  89D0              mov eax,edx
00000803  C1E002            shl eax,byte 0x2
00000806  01D0              add eax,edx
00000808  C1E004            shl eax,byte 0x4
0000080B  89C2              mov edx,eax
0000080D  8B450C            mov eax,[ebp+0xc]
00000810  01D0              add eax,edx
00000812  01C0              add eax,eax
00000814  5D                pop ebp
00000815  C3                ret
00000816  55                push ebp
00000817  89E5              mov ebp,esp
00000819  83EC28            sub esp,byte +0x28
0000081C  C74424040E000000  mov dword [esp+0x4],0xe
00000824  C70424D4030000    mov dword [esp],0x3d4
0000082B  E809FEFFFF        call 0x639
00000830  C70424D5030000    mov dword [esp],0x3d5
00000837  E8E0FDFFFF        call 0x61c
0000083C  0FB6C0            movzx eax,al
0000083F  C1E008            shl eax,byte 0x8
00000842  8945F4            mov [ebp-0xc],eax
00000845  C74424040F000000  mov dword [esp+0x4],0xf
0000084D  C70424D4030000    mov dword [esp],0x3d4
00000854  E8E0FDFFFF        call 0x639
00000859  C70424D5030000    mov dword [esp],0x3d5
00000860  E8B7FDFFFF        call 0x61c
00000865  0FB6C0            movzx eax,al
00000868  0145F4            add [ebp-0xc],eax
0000086B  8B45F4            mov eax,[ebp-0xc]
0000086E  01C0              add eax,eax
00000870  C9                leave
00000871  C3                ret
00000872  55                push ebp
00000873  89E5              mov ebp,esp
00000875  83EC18            sub esp,byte +0x18
00000878  8B4508            mov eax,[ebp+0x8]
0000087B  89C2              mov edx,eax
0000087D  C1EA1F            shr edx,byte 0x1f
00000880  01D0              add eax,edx
00000882  D1F8              sar eax,1
00000884  894508            mov [ebp+0x8],eax
00000887  C74424040E000000  mov dword [esp+0x4],0xe
0000088F  C70424D4030000    mov dword [esp],0x3d4
00000896  E89EFDFFFF        call 0x639
0000089B  8B4508            mov eax,[ebp+0x8]
0000089E  C1F808            sar eax,byte 0x8
000008A1  0FB6C0            movzx eax,al
000008A4  89442404          mov [esp+0x4],eax
000008A8  C70424D5030000    mov dword [esp],0x3d5
000008AF  E885FDFFFF        call 0x639
000008B4  C74424040F000000  mov dword [esp+0x4],0xf
000008BC  C70424D4030000    mov dword [esp],0x3d4
000008C3  E871FDFFFF        call 0x639
000008C8  8B4508            mov eax,[ebp+0x8]
000008CB  0FB6C0            movzx eax,al
000008CE  89442404          mov [esp+0x4],eax
000008D2  C70424D5030000    mov dword [esp],0x3d5
000008D9  E85BFDFFFF        call 0x639
000008DE  90                nop
000008DF  C9                leave
000008E0  C3                ret
000008E1  55                push ebp
000008E2  89E5              mov ebp,esp
000008E4  83EC28            sub esp,byte +0x28
000008E7  8B5508            mov edx,[ebp+0x8]
000008EA  8B450C            mov eax,[ebp+0xc]
000008ED  8855F4            mov [ebp-0xc],dl
000008F0  8845F0            mov [ebp-0x10],al
000008F3  C74424040A000000  mov dword [esp+0x4],0xa
000008FB  C70424D4030000    mov dword [esp],0x3d4
00000902  E832FDFFFF        call 0x639
00000907  C70424D5030000    mov dword [esp],0x3d5
0000090E  E809FDFFFF        call 0x61c
00000913  83E0C0            and eax,byte -0x40
00000916  89C2              mov edx,eax
00000918  0FB645F4          movzx eax,byte [ebp-0xc]
0000091C  09D0              or eax,edx
0000091E  0FB6C0            movzx eax,al
00000921  89442404          mov [esp+0x4],eax
00000925  C70424D5030000    mov dword [esp],0x3d5
0000092C  E808FDFFFF        call 0x639
00000931  C74424040B000000  mov dword [esp+0x4],0xb
00000939  C70424D4030000    mov dword [esp],0x3d4
00000940  E8F4FCFFFF        call 0x639
00000945  C70424D5030000    mov dword [esp],0x3d5
0000094C  E8CBFCFFFF        call 0x61c
00000951  83E0E0            and eax,byte -0x20
00000954  89C2              mov edx,eax
00000956  0FB645F0          movzx eax,byte [ebp-0x10]
0000095A  09D0              or eax,edx
0000095C  0FB6C0            movzx eax,al
0000095F  89442404          mov [esp+0x4],eax
00000963  C70424D5030000    mov dword [esp],0x3d5
0000096A  E8CAFCFFFF        call 0x639
0000096F  90                nop
00000970  C9                leave
00000971  C3                ret
00000972  55                push ebp
00000973  89E5              mov ebp,esp
00000975  83EC18            sub esp,byte +0x18
00000978  C74424040A000000  mov dword [esp+0x4],0xa
00000980  C70424D4030000    mov dword [esp],0x3d4
00000987  E8ADFCFFFF        call 0x639
0000098C  C744240420000000  mov dword [esp+0x4],0x20
00000994  C70424D5030000    mov dword [esp],0x3d5
0000099B  E899FCFFFF        call 0x639
000009A0  90                nop
000009A1  C9                leave
000009A2  C3                ret
000009A3  55                push ebp
000009A4  89E5              mov ebp,esp
000009A6  83EC18            sub esp,byte +0x18
000009A9  8B450C            mov eax,[ebp+0xc]
000009AC  89442404          mov [esp+0x4],eax
000009B0  8B4508            mov eax,[ebp+0x8]
000009B3  890424            mov [esp],eax
000009B6  E840FEFFFF        call 0x7fb
000009BB  890424            mov [esp],eax
000009BE  E8AFFEFFFF        call 0x872
000009C3  C9                leave
000009C4  C3                ret
000009C5  55                push ebp
000009C6  89E5              mov ebp,esp
000009C8  83EC28            sub esp,byte +0x28
000009CB  8B4508            mov eax,[ebp+0x8]
000009CE  8845F4            mov [ebp-0xc],al
000009D1  0FBE45F4          movsx eax,byte [ebp-0xc]
000009D5  C744240C0F000000  mov dword [esp+0xc],0xf
000009DD  C7442408FFFFFFFF  mov dword [esp+0x8],0xffffffff
000009E5  C7442404FFFFFFFF  mov dword [esp+0x4],0xffffffff
000009ED  890424            mov [esp],eax
000009F0  E8A3FCFFFF        call 0x698
000009F5  90                nop
000009F6  C9                leave
000009F7  C3                ret
000009F8  55                push ebp
000009F9  89E5              mov ebp,esp
000009FB  83EC18            sub esp,byte +0x18
000009FE  837D1000          cmp dword [ebp+0x10],byte +0x0
00000A02  7849              js 0xa4d
00000A04  837D0C00          cmp dword [ebp+0xc],byte +0x0
00000A08  7843              js 0xa4d
00000A0A  8B4510            mov eax,[ebp+0x10]
00000A0D  89442404          mov [esp+0x4],eax
00000A11  8B450C            mov eax,[ebp+0xc]
00000A14  890424            mov [esp],eax
00000A17  E887FFFFFF        call 0x9a3
00000A1C  EB2F              jmp short 0xa4d
00000A1E  8B4514            mov eax,[ebp+0x14]
00000A21  0FBED0            movsx edx,al
00000A24  8B4508            mov eax,[ebp+0x8]
00000A27  8D4801            lea ecx,[eax+0x1]
00000A2A  894D08            mov [ebp+0x8],ecx
00000A2D  0FB600            movzx eax,byte [eax]
00000A30  0FBEC0            movsx eax,al
00000A33  8954240C          mov [esp+0xc],edx
00000A37  8B5510            mov edx,[ebp+0x10]
00000A3A  89542408          mov [esp+0x8],edx
00000A3E  8B550C            mov edx,[ebp+0xc]
00000A41  89542404          mov [esp+0x4],edx
00000A45  890424            mov [esp],eax
00000A48  E84BFCFFFF        call 0x698
00000A4D  8B4508            mov eax,[ebp+0x8]
00000A50  0FB600            movzx eax,byte [eax]
00000A53  84C0              test al,al
00000A55  75C7              jnz 0xa1e
00000A57  90                nop
00000A58  C9                leave
00000A59  C3                ret
00000A5A  55                push ebp
00000A5B  89E5              mov ebp,esp
00000A5D  83EC18            sub esp,byte +0x18
00000A60  C744240C00000000  mov dword [esp+0xc],0x0
00000A68  C7442408FFFFFFFF  mov dword [esp+0x8],0xffffffff
00000A70  C7442404FFFFFFFF  mov dword [esp+0x4],0xffffffff
00000A78  8B4508            mov eax,[ebp+0x8]
00000A7B  890424            mov [esp],eax
00000A7E  E875FFFFFF        call 0x9f8
00000A83  90                nop
00000A84  C9                leave
00000A85  C3                ret
00000A86  55                push ebp
00000A87  89E5              mov ebp,esp
00000A89  83EC18            sub esp,byte +0x18
00000A8C  8B450C            mov eax,[ebp+0xc]
00000A8F  8944240C          mov [esp+0xc],eax
00000A93  C7442408FFFFFFFF  mov dword [esp+0x8],0xffffffff
00000A9B  C7442404FFFFFFFF  mov dword [esp+0x4],0xffffffff
00000AA3  8B4508            mov eax,[ebp+0x8]
00000AA6  890424            mov [esp],eax
00000AA9  E84AFFFFFF        call 0x9f8
00000AAE  90                nop
00000AAF  C9                leave
00000AB0  C3                ret
00000AB1  55                push ebp
00000AB2  89E5              mov ebp,esp
00000AB4  83EC48            sub esp,byte +0x48
00000AB7  8D450C            lea eax,[ebp+0xc]
00000ABA  8945F0            mov [ebp-0x10],eax
00000ABD  8B4508            mov eax,[ebp+0x8]
00000AC0  8945F4            mov [ebp-0xc],eax
00000AC3  E929010000        jmp 0xbf1
00000AC8  8B4508            mov eax,[ebp+0x8]
00000ACB  0FB600            movzx eax,byte [eax]
00000ACE  3C25              cmp al,0x25
00000AD0  0F85F6000000      jnz near 0xbcc
00000AD6  8B4508            mov eax,[ebp+0x8]
00000AD9  83E801            sub eax,byte +0x1
00000ADC  0FB600            movzx eax,byte [eax]
00000ADF  3C5C              cmp al,0x5c
00000AE1  7408              jz 0xaeb
00000AE3  8B4508            mov eax,[ebp+0x8]
00000AE6  3B45F4            cmp eax,[ebp-0xc]
00000AE9  750C              jnz 0xaf7
00000AEB  8B4508            mov eax,[ebp+0x8]
00000AEE  3B45F4            cmp eax,[ebp-0xc]
00000AF1  0F85D5000000      jnz near 0xbcc
00000AF7  83450801          add dword [ebp+0x8],byte +0x1
00000AFB  8B4508            mov eax,[ebp+0x8]
00000AFE  0FB600            movzx eax,byte [eax]
00000B01  0FBEC0            movsx eax,al
00000B04  83F864            cmp eax,byte +0x64
00000B07  741E              jz 0xb27
00000B09  83F864            cmp eax,byte +0x64
00000B0C  7F0A              jg 0xb18
00000B0E  83F863            cmp eax,byte +0x63
00000B11  7443              jz 0xb56
00000B13  E998000000        jmp 0xbb0
00000B18  83F873            cmp eax,byte +0x73
00000B1B  7451              jz 0xb6e
00000B1D  83F878            cmp eax,byte +0x78
00000B20  745F              jz 0xb81
00000B22  E989000000        jmp 0xbb0
00000B27  8B45F0            mov eax,[ebp-0x10]
00000B2A  8D5004            lea edx,[eax+0x4]
00000B2D  8955F0            mov [ebp-0x10],edx
00000B30  8B00              mov eax,[eax]
00000B32  C74424080A000000  mov dword [esp+0x8],0xa
00000B3A  8D55D2            lea edx,[ebp-0x2e]
00000B3D  89542404          mov [esp+0x4],edx
00000B41  890424            mov [esp],eax
00000B44  E873030000        call 0xebc
00000B49  8D45D2            lea eax,[ebp-0x2e]
00000B4C  890424            mov [esp],eax
00000B4F  E806FFFFFF        call 0xa5a
00000B54  EB74              jmp short 0xbca
00000B56  8B45F0            mov eax,[ebp-0x10]
00000B59  8D5004            lea edx,[eax+0x4]
00000B5C  8955F0            mov [ebp-0x10],edx
00000B5F  8B00              mov eax,[eax]
00000B61  0FBEC0            movsx eax,al
00000B64  890424            mov [esp],eax
00000B67  E859FEFFFF        call 0x9c5
00000B6C  EB5C              jmp short 0xbca
00000B6E  8B45F0            mov eax,[ebp-0x10]
00000B71  8D5004            lea edx,[eax+0x4]
00000B74  8955F0            mov [ebp-0x10],edx
00000B77  8B00              mov eax,[eax]
00000B79  890424            mov [esp],eax
00000B7C  E8D9FEFFFF        call 0xa5a
00000B81  8B45F0            mov eax,[ebp-0x10]
00000B84  8D5004            lea edx,[eax+0x4]
00000B87  8955F0            mov [ebp-0x10],edx
00000B8A  8B00              mov eax,[eax]
00000B8C  C744240810000000  mov dword [esp+0x8],0x10
00000B94  8D55D2            lea edx,[ebp-0x2e]
00000B97  89542404          mov [esp+0x4],edx
00000B9B  890424            mov [esp],eax
00000B9E  E819030000        call 0xebc
00000BA3  8D45D2            lea eax,[ebp-0x2e]
00000BA6  890424            mov [esp],eax
00000BA9  E8ACFEFFFF        call 0xa5a
00000BAE  EB1A              jmp short 0xbca
00000BB0  8B4508            mov eax,[ebp+0x8]
00000BB3  89442404          mov [esp+0x4],eax
00000BB7  C704245C310000    mov dword [esp],0x315c
00000BBE  E8EEFEFFFF        call 0xab1
00000BC3  B8FFFFFFFF        mov eax,0xffffffff
00000BC8  EB3A              jmp short 0xc04
00000BCA  EB21              jmp short 0xbed
00000BCC  8B4508            mov eax,[ebp+0x8]
00000BCF  0FB600            movzx eax,byte [eax]
00000BD2  3C5C              cmp al,0x5c
00000BD4  7506              jnz 0xbdc
00000BD6  83450801          add dword [ebp+0x8],byte +0x1
00000BDA  EB15              jmp short 0xbf1
00000BDC  8B4508            mov eax,[ebp+0x8]
00000BDF  0FB600            movzx eax,byte [eax]
00000BE2  0FBEC0            movsx eax,al
00000BE5  890424            mov [esp],eax
00000BE8  E8D8FDFFFF        call 0x9c5
00000BED  83450801          add dword [ebp+0x8],byte +0x1
00000BF1  8B4508            mov eax,[ebp+0x8]
00000BF4  0FB600            movzx eax,byte [eax]
00000BF7  84C0              test al,al
00000BF9  0F85C9FEFFFF      jnz near 0xac8
00000BFF  B800000000        mov eax,0x0
00000C04  C9                leave
00000C05  C3                ret
00000C06  55                push ebp
00000C07  89E5              mov ebp,esp
00000C09  83EC28            sub esp,byte +0x28
00000C0C  C745F000800B00    mov dword [ebp-0x10],0xb8000
00000C13  C745F400000000    mov dword [ebp-0xc],0x0
00000C1A  EB0F              jmp short 0xc2b
00000C1C  8B55F4            mov edx,[ebp-0xc]
00000C1F  8B45F0            mov eax,[ebp-0x10]
00000C22  01D0              add eax,edx
00000C24  C60020            mov byte [eax],0x20
00000C27  8345F402          add dword [ebp-0xc],byte +0x2
00000C2B  817DF49F0F0000    cmp dword [ebp-0xc],0xf9f
00000C32  7EE8              jng 0xc1c
00000C34  C744240400000000  mov dword [esp+0x4],0x0
00000C3C  C7042400000000    mov dword [esp],0x0
00000C43  E8B3FBFFFF        call 0x7fb
00000C48  890424            mov [esp],eax
00000C4B  E822FCFFFF        call 0x872
00000C50  90                nop
00000C51  C9                leave
00000C52  C3                ret
00000C53  55                push ebp
00000C54  89E5              mov ebp,esp
00000C56  53                push ebx
00000C57  83EC24            sub esp,byte +0x24
00000C5A  817D089F0F0000    cmp dword [ebp+0x8],0xf9f
00000C61  7F08              jg 0xc6b
00000C63  8B4508            mov eax,[ebp+0x8]
00000C66  E9A3000000        jmp 0xd0e
00000C6B  C745F401000000    mov dword [ebp-0xc],0x1
00000C72  EB4D              jmp short 0xcc1
00000C74  C744240400000000  mov dword [esp+0x4],0x0
00000C7C  8B45F4            mov eax,[ebp-0xc]
00000C7F  890424            mov [esp],eax
00000C82  E874FBFFFF        call 0x7fb
00000C87  0500800B00        add eax,0xb8000
00000C8C  89C3              mov ebx,eax
00000C8E  8B45F4            mov eax,[ebp-0xc]
00000C91  83E801            sub eax,byte +0x1
00000C94  C744240400000000  mov dword [esp+0x4],0x0
00000C9C  890424            mov [esp],eax
00000C9F  E857FBFFFF        call 0x7fb
00000CA4  0500800B00        add eax,0xb8000
00000CA9  C7442408A0000000  mov dword [esp+0x8],0xa0
00000CB1  895C2404          mov [esp+0x4],ebx
00000CB5  890424            mov [esp],eax
00000CB8  E863010000        call 0xe20
00000CBD  8345F401          add dword [ebp-0xc],byte +0x1
00000CC1  837DF418          cmp dword [ebp-0xc],byte +0x18
00000CC5  7EAD              jng 0xc74
00000CC7  C744240400000000  mov dword [esp+0x4],0x0
00000CCF  C7042418000000    mov dword [esp],0x18
00000CD6  E820FBFFFF        call 0x7fb
00000CDB  0500800B00        add eax,0xb8000
00000CE0  8945EC            mov [ebp-0x14],eax
00000CE3  C745F000000000    mov dword [ebp-0x10],0x0
00000CEA  EB0F              jmp short 0xcfb
00000CEC  8B55F0            mov edx,[ebp-0x10]
00000CEF  8B45EC            mov eax,[ebp-0x14]
00000CF2  01D0              add eax,edx
00000CF4  C60000            mov byte [eax],0x0
00000CF7  8345F001          add dword [ebp-0x10],byte +0x1
00000CFB  817DF09F000000    cmp dword [ebp-0x10],0x9f
00000D02  7EE8              jng 0xcec
00000D04  816D08A0000000    sub dword [ebp+0x8],0xa0
00000D0B  8B4508            mov eax,[ebp+0x8]
00000D0E  83C424            add esp,byte +0x24
00000D11  5B                pop ebx
00000D12  5D                pop ebp
00000D13  C3                ret
00000D14  55                push ebp
00000D15  89E5              mov ebp,esp
00000D17  83EC38            sub esp,byte +0x38
00000D1A  C645EF23          mov byte [ebp-0x11],0x23
00000D1E  C745E83B000000    mov dword [ebp-0x18],0x3b
00000D25  C745F400000000    mov dword [ebp-0xc],0x0
00000D2C  E98C000000        jmp 0xdbd
00000D31  C745F000000000    mov dword [ebp-0x10],0x0
00000D38  EB79              jmp short 0xdb3
00000D3A  8B55F4            mov edx,[ebp-0xc]
00000D3D  89D0              mov eax,edx
00000D3F  C1E002            shl eax,byte 0x2
00000D42  01D0              add eax,edx
00000D44  C1E004            shl eax,byte 0x4
00000D47  89C2              mov edx,eax
00000D49  8B45F0            mov eax,[ebp-0x10]
00000D4C  01D0              add eax,edx
00000D4E  0FB68060200000    movzx eax,byte [eax+0x2060]
00000D55  3C01              cmp al,0x1
00000D57  7526              jnz 0xd7f
00000D59  8B45E8            mov eax,[ebp-0x18]
00000D5C  0FBED0            movsx edx,al
00000D5F  0FBE45EF          movsx eax,byte [ebp-0x11]
00000D63  8954240C          mov [esp+0xc],edx
00000D67  8B55F0            mov edx,[ebp-0x10]
00000D6A  89542408          mov [esp+0x8],edx
00000D6E  8B55F4            mov edx,[ebp-0xc]
00000D71  89542404          mov [esp+0x4],edx
00000D75  890424            mov [esp],eax
00000D78  E81BF9FFFF        call 0x698
00000D7D  EB24              jmp short 0xda3
00000D7F  8B45E8            mov eax,[ebp-0x18]
00000D82  0FBEC0            movsx eax,al
00000D85  8944240C          mov [esp+0xc],eax
00000D89  8B45F0            mov eax,[ebp-0x10]
00000D8C  89442408          mov [esp+0x8],eax
00000D90  8B45F4            mov eax,[ebp-0xc]
00000D93  89442404          mov [esp+0x4],eax
00000D97  C7042420000000    mov dword [esp],0x20
00000D9E  E8F5F8FFFF        call 0x698
00000DA3  C7042401000000    mov dword [esp],0x1
00000DAA  E819020000        call 0xfc8
00000DAF  8345F001          add dword [ebp-0x10],byte +0x1
00000DB3  837DF04F          cmp dword [ebp-0x10],byte +0x4f
00000DB7  7E81              jng 0xd3a
00000DB9  8345F401          add dword [ebp-0xc],byte +0x1
00000DBD  837DF418          cmp dword [ebp-0xc],byte +0x18
00000DC1  0F8E6AFFFFFF      jng near 0xd31
00000DC7  C745E478310000    mov dword [ebp-0x1c],0x3178
00000DCE  8B45E4            mov eax,[ebp-0x1c]
00000DD1  890424            mov [esp],eax
00000DD4  E8C5010000        call 0xf9e
00000DD9  89C2              mov edx,eax
00000DDB  C1EA1F            shr edx,byte 0x1f
00000DDE  01D0              add eax,edx
00000DE0  D1F8              sar eax,1
00000DE2  F7D8              neg eax
00000DE4  83C027            add eax,byte +0x27
00000DE7  89442404          mov [esp+0x4],eax
00000DEB  C7042416000000    mov dword [esp],0x16
00000DF2  E8ACFBFFFF        call 0x9a3
00000DF7  C74424043B000000  mov dword [esp+0x4],0x3b
00000DFF  8B45E4            mov eax,[ebp-0x1c]
00000E02  890424            mov [esp],eax
00000E05  E87CFCFFFF        call 0xa86
00000E0A  C7042464000000    mov dword [esp],0x64
00000E11  E8B2010000        call 0xfc8
00000E16  E843F9FFFF        call 0x75e
00000E1B  90                nop
00000E1C  C9                leave
00000E1D  C3                ret
00000E1E  90                nop
00000E1F  90                nop
00000E20  55                push ebp
00000E21  89E5              mov ebp,esp
00000E23  83EC10            sub esp,byte +0x10
00000E26  C745FC00000000    mov dword [ebp-0x4],0x0
00000E2D  EB19              jmp short 0xe48
00000E2F  8B55FC            mov edx,[ebp-0x4]
00000E32  8B4508            mov eax,[ebp+0x8]
00000E35  01D0              add eax,edx
00000E37  8B4DFC            mov ecx,[ebp-0x4]
00000E3A  8B550C            mov edx,[ebp+0xc]
00000E3D  01CA              add edx,ecx
00000E3F  0FB612            movzx edx,byte [edx]
00000E42  8810              mov [eax],dl
00000E44  8345FC01          add dword [ebp-0x4],byte +0x1
00000E48  8B45FC            mov eax,[ebp-0x4]
00000E4B  3B4510            cmp eax,[ebp+0x10]
00000E4E  7CDF              jl 0xe2f
00000E50  90                nop
00000E51  C9                leave
00000E52  C3                ret
00000E53  55                push ebp
00000E54  89E5              mov ebp,esp
00000E56  83EC14            sub esp,byte +0x14
00000E59  8B450C            mov eax,[ebp+0xc]
00000E5C  8845EC            mov [ebp-0x14],al
00000E5F  C745FC00000000    mov dword [ebp-0x4],0x0
00000E66  EB12              jmp short 0xe7a
00000E68  8B55FC            mov edx,[ebp-0x4]
00000E6B  8B4508            mov eax,[ebp+0x8]
00000E6E  01C2              add edx,eax
00000E70  0FB645EC          movzx eax,byte [ebp-0x14]
00000E74  8802              mov [edx],al
00000E76  8345FC01          add dword [ebp-0x4],byte +0x1
00000E7A  8B45FC            mov eax,[ebp-0x4]
00000E7D  3B4510            cmp eax,[ebp+0x10]
00000E80  7CE6              jl 0xe68
00000E82  90                nop
00000E83  C9                leave
00000E84  C3                ret
00000E85  55                push ebp
00000E86  89E5              mov ebp,esp
00000E88  83EC14            sub esp,byte +0x14
00000E8B  8B450C            mov eax,[ebp+0xc]
00000E8E  668945EC          mov [ebp-0x14],ax
00000E92  C745FC00000000    mov dword [ebp-0x4],0x0
00000E99  EB16              jmp short 0xeb1
00000E9B  8B45FC            mov eax,[ebp-0x4]
00000E9E  8D1400            lea edx,[eax+eax]
00000EA1  8B4508            mov eax,[ebp+0x8]
00000EA4  01C2              add edx,eax
00000EA6  0FB745EC          movzx eax,word [ebp-0x14]
00000EAA  668902            mov [edx],ax
00000EAD  8345FC01          add dword [ebp-0x4],byte +0x1
00000EB1  8B45FC            mov eax,[ebp-0x4]
00000EB4  3B4510            cmp eax,[ebp+0x10]
00000EB7  7CE2              jl 0xe9b
00000EB9  90                nop
00000EBA  C9                leave
00000EBB  C3                ret
00000EBC  55                push ebp
00000EBD  89E5              mov ebp,esp
00000EBF  83EC30            sub esp,byte +0x30
00000EC2  C645DC30          mov byte [ebp-0x24],0x30
00000EC6  C645DD31          mov byte [ebp-0x23],0x31
00000ECA  C645DE32          mov byte [ebp-0x22],0x32
00000ECE  C645DF33          mov byte [ebp-0x21],0x33
00000ED2  C645E034          mov byte [ebp-0x20],0x34
00000ED6  C645E135          mov byte [ebp-0x1f],0x35
00000EDA  C645E236          mov byte [ebp-0x1e],0x36
00000EDE  C645E337          mov byte [ebp-0x1d],0x37
00000EE2  C645E438          mov byte [ebp-0x1c],0x38
00000EE6  C645E539          mov byte [ebp-0x1b],0x39
00000EEA  C645E641          mov byte [ebp-0x1a],0x41
00000EEE  C645E742          mov byte [ebp-0x19],0x42
00000EF2  C645E843          mov byte [ebp-0x18],0x43
00000EF6  C645E944          mov byte [ebp-0x17],0x44
00000EFA  C645EA45          mov byte [ebp-0x16],0x45
00000EFE  C645EB46          mov byte [ebp-0x15],0x46
00000F02  C745FC00000000    mov dword [ebp-0x4],0x0
00000F09  837D0800          cmp dword [ebp+0x8],byte +0x0
00000F0D  790A              jns 0xf19
00000F0F  F75D08            neg dword [ebp+0x8]
00000F12  C745FC01000000    mov dword [ebp-0x4],0x1
00000F19  8B4508            mov eax,[ebp+0x8]
00000F1C  8945F8            mov [ebp-0x8],eax
00000F1F  C745F400000000    mov dword [ebp-0xc],0x0
00000F26  8345F401          add dword [ebp-0xc],byte +0x1
00000F2A  8B45F8            mov eax,[ebp-0x8]
00000F2D  99                cdq
00000F2E  F77D10            idiv dword [ebp+0x10]
00000F31  8945F8            mov [ebp-0x8],eax
00000F34  837DF800          cmp dword [ebp-0x8],byte +0x0
00000F38  75EC              jnz 0xf26
00000F3A  C745F000000000    mov dword [ebp-0x10],0x0
00000F41  837DFC00          cmp dword [ebp-0x4],byte +0x0
00000F45  740A              jz 0xf51
00000F47  8345F401          add dword [ebp-0xc],byte +0x1
00000F4B  8B450C            mov eax,[ebp+0xc]
00000F4E  C6002D            mov byte [eax],0x2d
00000F51  8B4508            mov eax,[ebp+0x8]
00000F54  99                cdq
00000F55  F77D10            idiv dword [ebp+0x10]
00000F58  89D0              mov eax,edx
00000F5A  0FB64405DC        movzx eax,byte [ebp+eax-0x24]
00000F5F  0FBEC0            movsx eax,al
00000F62  8945EC            mov [ebp-0x14],eax
00000F65  8B55F4            mov edx,[ebp-0xc]
00000F68  8B45F0            mov eax,[ebp-0x10]
00000F6B  29C2              sub edx,eax
00000F6D  89D0              mov eax,edx
00000F6F  8D50FF            lea edx,[eax-0x1]
00000F72  8B450C            mov eax,[ebp+0xc]
00000F75  01D0              add eax,edx
00000F77  8B55EC            mov edx,[ebp-0x14]
00000F7A  8810              mov [eax],dl
00000F7C  8345F001          add dword [ebp-0x10],byte +0x1
00000F80  8B4508            mov eax,[ebp+0x8]
00000F83  99                cdq
00000F84  F77D10            idiv dword [ebp+0x10]
00000F87  894508            mov [ebp+0x8],eax
00000F8A  837D0800          cmp dword [ebp+0x8],byte +0x0
00000F8E  75C1              jnz 0xf51
00000F90  8B55F4            mov edx,[ebp-0xc]
00000F93  8B450C            mov eax,[ebp+0xc]
00000F96  01D0              add eax,edx
00000F98  C60000            mov byte [eax],0x0
00000F9B  90                nop
00000F9C  C9                leave
00000F9D  C3                ret
00000F9E  55                push ebp
00000F9F  89E5              mov ebp,esp
00000FA1  83EC10            sub esp,byte +0x10
00000FA4  C745FC00000000    mov dword [ebp-0x4],0x0
00000FAB  EB04              jmp short 0xfb1
00000FAD  8345FC01          add dword [ebp-0x4],byte +0x1
00000FB1  8B4508            mov eax,[ebp+0x8]
00000FB4  8D5001            lea edx,[eax+0x1]
00000FB7  895508            mov [ebp+0x8],edx
00000FBA  0FB600            movzx eax,byte [eax]
00000FBD  84C0              test al,al
00000FBF  75EC              jnz 0xfad
00000FC1  8B45FC            mov eax,[ebp-0x4]
00000FC4  C9                leave
00000FC5  C3                ret
00000FC6  90                nop
00000FC7  90                nop
00000FC8  55                push ebp
00000FC9  89E5              mov ebp,esp
00000FCB  83EC10            sub esp,byte +0x10
00000FCE  C745FC00000000    mov dword [ebp-0x4],0x0
00000FD5  EB04              jmp short 0xfdb
00000FD7  8345FC01          add dword [ebp-0x4],byte +0x1
00000FDB  8B5508            mov edx,[ebp+0x8]
00000FDE  89D0              mov eax,edx
00000FE0  C1E010            shl eax,byte 0x10
00000FE3  29D0              sub eax,edx
00000FE5  3B45FC            cmp eax,[ebp-0x4]
00000FE8  77ED              ja 0xfd7
00000FEA  90                nop
00000FEB  C9                leave
00000FEC  C3                ret
00000FED  90                nop
00000FEE  90                nop
00000FEF  90                nop
00000FF0  FF                db 0xff
00000FF1  FF                db 0xff
00000FF2  FF                db 0xff
00000FF3  FF00              inc dword [eax]
00000FF5  0000              add [eax],al
00000FF7  00FF              add bh,bh
00000FF9  FF                db 0xff
00000FFA  FF                db 0xff
00000FFB  FF00              inc dword [eax]
00000FFD  0000              add [eax],al
00000FFF  0003              add [ebx],al
00001001  3000              xor [eax],al
00001003  001430            add [eax+esi],dl
00001006  0000              add [eax],al
00001008  1A30              sbb dh,[eax]
0000100A  0000              add [eax],al
0000100C  3130              xor [eax],esi
0000100E  0000              add [eax],al
00001010  3C30              cmp al,0x30
00001012  0000              add [eax],al
00001014  53                push ebx
00001015  3000              xor [eax],al
00001017  006130            add [ecx+0x30],ah
0000101A  0000              add [eax],al
0000101C  7030              jo 0x104e
0000101E  0000              add [eax],al
00001020  7F30              jg 0x1052
00001022  0000              add [eax],al
00001024  8C30              mov [eax],segr6
00001026  0000              add [eax],al
00001028  A830              test al,0x30
0000102A  0000              add [eax],al
0000102C  B030              mov al,0x30
0000102E  0000              add [eax],al
00001030  C430              les esi,[eax]
00001032  0000              add [eax],al
00001034  D0                db 0xd0
00001035  3000              xor [eax],al
00001037  00E9              add cl,ch
00001039  3000              xor [eax],al
0000103B  00F4              add ah,dh
0000103D  3000              xor [eax],al
0000103F  0006              add [esi],al
00001041  3100              xor [eax],eax
00001043  0018              add [eax],bl
00001045  3100              xor [eax],eax
00001047  0028              add [eax],ch
00001049  3100              xor [eax],eax
0000104B  0000              add [eax],al
0000104D  0000              add [eax],al
0000104F  0000              add [eax],al
00001051  0000              add [eax],al
00001053  0000              add [eax],al
00001055  0000              add [eax],al
00001057  0000              add [eax],al
00001059  0000              add [eax],al
0000105B  0000              add [eax],al
0000105D  0000              add [eax],al
0000105F  0000              add [eax],al
00001061  0000              add [eax],al
00001063  0000              add [eax],al
00001065  0000              add [eax],al
00001067  0000              add [eax],al
00001069  0000              add [eax],al
0000106B  0000              add [eax],al
0000106D  0000              add [eax],al
0000106F  0000              add [eax],al
00001071  0000              add [eax],al
00001073  0000              add [eax],al
00001075  0000              add [eax],al
00001077  0000              add [eax],al
00001079  0000              add [eax],al
0000107B  0000              add [eax],al
0000107D  0000              add [eax],al
0000107F  0000              add [eax],al
00001081  0000              add [eax],al
00001083  0000              add [eax],al
00001085  0000              add [eax],al
00001087  0000              add [eax],al
00001089  0000              add [eax],al
0000108B  0000              add [eax],al
0000108D  0000              add [eax],al
0000108F  0000              add [eax],al
00001091  0000              add [eax],al
00001093  0000              add [eax],al
00001095  0000              add [eax],al
00001097  0000              add [eax],al
00001099  0000              add [eax],al
0000109B  0000              add [eax],al
0000109D  0000              add [eax],al
0000109F  0000              add [eax],al
000010A1  0000              add [eax],al
000010A3  0000              add [eax],al
000010A5  0000              add [eax],al
000010A7  0000              add [eax],al
000010A9  0000              add [eax],al
000010AB  0000              add [eax],al
000010AD  0000              add [eax],al
000010AF  0000              add [eax],al
000010B1  0000              add [eax],al
000010B3  0000              add [eax],al
000010B5  0000              add [eax],al
000010B7  0000              add [eax],al
000010B9  0000              add [eax],al
000010BB  0000              add [eax],al
000010BD  0000              add [eax],al
000010BF  0000              add [eax],al
000010C1  0000              add [eax],al
000010C3  0000              add [eax],al
000010C5  0000              add [eax],al
000010C7  0000              add [eax],al
000010C9  0000              add [eax],al
000010CB  0000              add [eax],al
000010CD  0000              add [eax],al
000010CF  0000              add [eax],al
000010D1  0000              add [eax],al
000010D3  0000              add [eax],al
000010D5  0000              add [eax],al
000010D7  0000              add [eax],al
000010D9  0000              add [eax],al
000010DB  0000              add [eax],al
000010DD  0000              add [eax],al
000010DF  0000              add [eax],al
000010E1  0000              add [eax],al
000010E3  0000              add [eax],al
000010E5  0000              add [eax],al
000010E7  0000              add [eax],al
000010E9  0000              add [eax],al
000010EB  0000              add [eax],al
000010ED  0000              add [eax],al
000010EF  0000              add [eax],al
000010F1  0000              add [eax],al
000010F3  0000              add [eax],al
000010F5  0000              add [eax],al
000010F7  0000              add [eax],al
000010F9  0000              add [eax],al
000010FB  0000              add [eax],al
000010FD  0000              add [eax],al
000010FF  0000              add [eax],al
00001101  0000              add [eax],al
00001103  0000              add [eax],al
00001105  0000              add [eax],al
00001107  0000              add [eax],al
00001109  0000              add [eax],al
0000110B  0000              add [eax],al
0000110D  0000              add [eax],al
0000110F  0000              add [eax],al
00001111  0000              add [eax],al
00001113  0000              add [eax],al
00001115  0000              add [eax],al
00001117  0000              add [eax],al
00001119  0000              add [eax],al
0000111B  0000              add [eax],al
0000111D  0000              add [eax],al
0000111F  0000              add [eax],al
00001121  0000              add [eax],al
00001123  0000              add [eax],al
00001125  0000              add [eax],al
00001127  0000              add [eax],al
00001129  0000              add [eax],al
0000112B  0000              add [eax],al
0000112D  0000              add [eax],al
0000112F  0000              add [eax],al
00001131  0000              add [eax],al
00001133  0000              add [eax],al
00001135  0000              add [eax],al
00001137  0000              add [eax],al
00001139  0000              add [eax],al
0000113B  0000              add [eax],al
0000113D  0000              add [eax],al
0000113F  0000              add [eax],al
00001141  0000              add [eax],al
00001143  0000              add [eax],al
00001145  0000              add [eax],al
00001147  0000              add [eax],al
00001149  0000              add [eax],al
0000114B  0000              add [eax],al
0000114D  0000              add [eax],al
0000114F  0000              add [eax],al
00001151  0000              add [eax],al
00001153  0000              add [eax],al
00001155  0000              add [eax],al
00001157  0000              add [eax],al
00001159  0000              add [eax],al
0000115B  0000              add [eax],al
0000115D  0000              add [eax],al
0000115F  0000              add [eax],al
00001161  0000              add [eax],al
00001163  0000              add [eax],al
00001165  0000              add [eax],al
00001167  0000              add [eax],al
00001169  0000              add [eax],al
0000116B  0000              add [eax],al
0000116D  0000              add [eax],al
0000116F  0000              add [eax],al
00001171  0000              add [eax],al
00001173  0000              add [eax],al
00001175  0000              add [eax],al
00001177  0000              add [eax],al
00001179  0000              add [eax],al
0000117B  0000              add [eax],al
0000117D  0000              add [eax],al
0000117F  0000              add [eax],al
00001181  0000              add [eax],al
00001183  0000              add [eax],al
00001185  0000              add [eax],al
00001187  0000              add [eax],al
00001189  0000              add [eax],al
0000118B  0000              add [eax],al
0000118D  0000              add [eax],al
0000118F  0000              add [eax],al
00001191  0000              add [eax],al
00001193  0000              add [eax],al
00001195  0000              add [eax],al
00001197  0000              add [eax],al
00001199  0000              add [eax],al
0000119B  0000              add [eax],al
0000119D  0000              add [eax],al
0000119F  0000              add [eax],al
000011A1  0000              add [eax],al
000011A3  0000              add [eax],al
000011A5  0000              add [eax],al
000011A7  0000              add [eax],al
000011A9  0000              add [eax],al
000011AB  0000              add [eax],al
000011AD  0000              add [eax],al
000011AF  0000              add [eax],al
000011B1  0000              add [eax],al
000011B3  0000              add [eax],al
000011B5  0000              add [eax],al
000011B7  0000              add [eax],al
000011B9  0000              add [eax],al
000011BB  0000              add [eax],al
000011BD  0000              add [eax],al
000011BF  0000              add [eax],al
000011C1  0000              add [eax],al
000011C3  0000              add [eax],al
000011C5  0000              add [eax],al
000011C7  0000              add [eax],al
000011C9  0000              add [eax],al
000011CB  0000              add [eax],al
000011CD  0000              add [eax],al
000011CF  0000              add [eax],al
000011D1  0000              add [eax],al
000011D3  0000              add [eax],al
000011D5  0000              add [eax],al
000011D7  0000              add [eax],al
000011D9  0000              add [eax],al
000011DB  0000              add [eax],al
000011DD  0000              add [eax],al
000011DF  0000              add [eax],al
000011E1  0000              add [eax],al
000011E3  0000              add [eax],al
000011E5  0000              add [eax],al
000011E7  0000              add [eax],al
000011E9  0000              add [eax],al
000011EB  0000              add [eax],al
000011ED  0000              add [eax],al
000011EF  0000              add [eax],al
000011F1  0000              add [eax],al
000011F3  0000              add [eax],al
000011F5  0000              add [eax],al
000011F7  0000              add [eax],al
000011F9  0000              add [eax],al
000011FB  0000              add [eax],al
000011FD  0000              add [eax],al
000011FF  0000              add [eax],al
00001201  0000              add [eax],al
00001203  0000              add [eax],al
00001205  0000              add [eax],al
00001207  0000              add [eax],al
00001209  0000              add [eax],al
0000120B  0000              add [eax],al
0000120D  0000              add [eax],al
0000120F  0000              add [eax],al
00001211  0000              add [eax],al
00001213  0000              add [eax],al
00001215  0101              add [ecx],eax
00001217  0101              add [ecx],eax
00001219  0101              add [ecx],eax
0000121B  0000              add [eax],al
0000121D  0000              add [eax],al
0000121F  0000              add [eax],al
00001221  0000              add [eax],al
00001223  0000              add [eax],al
00001225  0000              add [eax],al
00001227  0000              add [eax],al
00001229  0000              add [eax],al
0000122B  0000              add [eax],al
0000122D  0000              add [eax],al
0000122F  0000              add [eax],al
00001231  0000              add [eax],al
00001233  0000              add [eax],al
00001235  0000              add [eax],al
00001237  0000              add [eax],al
00001239  0000              add [eax],al
0000123B  0000              add [eax],al
0000123D  0000              add [eax],al
0000123F  0000              add [eax],al
00001241  0000              add [eax],al
00001243  0000              add [eax],al
00001245  0000              add [eax],al
00001247  0000              add [eax],al
00001249  0000              add [eax],al
0000124B  0000              add [eax],al
0000124D  0000              add [eax],al
0000124F  0000              add [eax],al
00001251  0000              add [eax],al
00001253  0000              add [eax],al
00001255  0000              add [eax],al
00001257  0000              add [eax],al
00001259  0000              add [eax],al
0000125B  0000              add [eax],al
0000125D  0000              add [eax],al
0000125F  0000              add [eax],al
00001261  0000              add [eax],al
00001263  0001              add [ecx],al
00001265  0101              add [ecx],eax
00001267  0001              add [ecx],al
00001269  0101              add [ecx],eax
0000126B  0100              add [eax],eax
0000126D  0000              add [eax],al
0000126F  0000              add [eax],al
00001271  0000              add [eax],al
00001273  0000              add [eax],al
00001275  0000              add [eax],al
00001277  0000              add [eax],al
00001279  0000              add [eax],al
0000127B  0000              add [eax],al
0000127D  0000              add [eax],al
0000127F  0000              add [eax],al
00001281  0000              add [eax],al
00001283  0000              add [eax],al
00001285  0000              add [eax],al
00001287  0000              add [eax],al
00001289  0000              add [eax],al
0000128B  0000              add [eax],al
0000128D  0000              add [eax],al
0000128F  0000              add [eax],al
00001291  0000              add [eax],al
00001293  0000              add [eax],al
00001295  0000              add [eax],al
00001297  0000              add [eax],al
00001299  0000              add [eax],al
0000129B  0000              add [eax],al
0000129D  0000              add [eax],al
0000129F  0000              add [eax],al
000012A1  0000              add [eax],al
000012A3  0000              add [eax],al
000012A5  0000              add [eax],al
000012A7  0000              add [eax],al
000012A9  0000              add [eax],al
000012AB  0000              add [eax],al
000012AD  0000              add [eax],al
000012AF  0000              add [eax],al
000012B1  0000              add [eax],al
000012B3  0101              add [ecx],eax
000012B5  0101              add [ecx],eax
000012B7  0000              add [eax],al
000012B9  0101              add [ecx],eax
000012BB  0101              add [ecx],eax
000012BD  0000              add [eax],al
000012BF  0000              add [eax],al
000012C1  0000              add [eax],al
000012C3  0000              add [eax],al
000012C5  0000              add [eax],al
000012C7  0000              add [eax],al
000012C9  0000              add [eax],al
000012CB  0000              add [eax],al
000012CD  0000              add [eax],al
000012CF  0000              add [eax],al
000012D1  0000              add [eax],al
000012D3  0000              add [eax],al
000012D5  0000              add [eax],al
000012D7  0000              add [eax],al
000012D9  0000              add [eax],al
000012DB  0000              add [eax],al
000012DD  0000              add [eax],al
000012DF  0000              add [eax],al
000012E1  0000              add [eax],al
000012E3  0000              add [eax],al
000012E5  0000              add [eax],al
000012E7  0000              add [eax],al
000012E9  0000              add [eax],al
000012EB  0000              add [eax],al
000012ED  0000              add [eax],al
000012EF  0000              add [eax],al
000012F1  0000              add [eax],al
000012F3  0000              add [eax],al
000012F5  0000              add [eax],al
000012F7  0000              add [eax],al
000012F9  0000              add [eax],al
000012FB  0000              add [eax],al
000012FD  0000              add [eax],al
000012FF  0000              add [eax],al
00001301  0001              add [ecx],al
00001303  0101              add [ecx],eax
00001305  0100              add [eax],eax
00001307  0000              add [eax],al
00001309  0001              add [ecx],al
0000130B  0101              add [ecx],eax
0000130D  0100              add [eax],eax
0000130F  0000              add [eax],al
00001311  0000              add [eax],al
00001313  0000              add [eax],al
00001315  0000              add [eax],al
00001317  0000              add [eax],al
00001319  0000              add [eax],al
0000131B  0000              add [eax],al
0000131D  0000              add [eax],al
0000131F  0000              add [eax],al
00001321  0000              add [eax],al
00001323  0000              add [eax],al
00001325  0000              add [eax],al
00001327  0000              add [eax],al
00001329  0000              add [eax],al
0000132B  0000              add [eax],al
0000132D  0000              add [eax],al
0000132F  0000              add [eax],al
00001331  0000              add [eax],al
00001333  0000              add [eax],al
00001335  0000              add [eax],al
00001337  0000              add [eax],al
00001339  0000              add [eax],al
0000133B  0000              add [eax],al
0000133D  0000              add [eax],al
0000133F  0000              add [eax],al
00001341  0000              add [eax],al
00001343  0000              add [eax],al
00001345  0000              add [eax],al
00001347  0000              add [eax],al
00001349  0000              add [eax],al
0000134B  0000              add [eax],al
0000134D  0000              add [eax],al
0000134F  0000              add [eax],al
00001351  0000              add [eax],al
00001353  0000              add [eax],al
00001355  0000              add [eax],al
00001357  0000              add [eax],al
00001359  0000              add [eax],al
0000135B  0000              add [eax],al
0000135D  0000              add [eax],al
0000135F  0000              add [eax],al
00001361  0000              add [eax],al
00001363  0000              add [eax],al
00001365  0000              add [eax],al
00001367  0000              add [eax],al
00001369  0000              add [eax],al
0000136B  0000              add [eax],al
0000136D  0000              add [eax],al
0000136F  0000              add [eax],al
00001371  0000              add [eax],al
00001373  0000              add [eax],al
00001375  0000              add [eax],al
00001377  0000              add [eax],al
00001379  0000              add [eax],al
0000137B  0000              add [eax],al
0000137D  0000              add [eax],al
0000137F  0000              add [eax],al
00001381  0000              add [eax],al
00001383  0000              add [eax],al
00001385  0000              add [eax],al
00001387  0000              add [eax],al
00001389  0000              add [eax],al
0000138B  0000              add [eax],al
0000138D  0001              add [ecx],al
0000138F  0101              add [ecx],eax
00001391  0000              add [eax],al
00001393  0000              add [eax],al
00001395  0000              add [eax],al
00001397  0001              add [ecx],al
00001399  0100              add [eax],eax
0000139B  0000              add [eax],al
0000139D  0000              add [eax],al
0000139F  0101              add [ecx],eax
000013A1  0000              add [eax],al
000013A3  0000              add [eax],al
000013A5  0000              add [eax],al
000013A7  0000              add [eax],al
000013A9  0000              add [eax],al
000013AB  0000              add [eax],al
000013AD  0000              add [eax],al
000013AF  0001              add [ecx],al
000013B1  0101              add [ecx],eax
000013B3  0101              add [ecx],eax
000013B5  0101              add [ecx],eax
000013B7  0101              add [ecx],eax
000013B9  0000              add [eax],al
000013BB  0000              add [eax],al
000013BD  0000              add [eax],al
000013BF  0101              add [ecx],eax
000013C1  0101              add [ecx],eax
000013C3  0101              add [ecx],eax
000013C5  0100              add [eax],eax
000013C7  0000              add [eax],al
000013C9  0000              add [eax],al
000013CB  0000              add [eax],al
000013CD  0000              add [eax],al
000013CF  0000              add [eax],al
000013D1  0000              add [eax],al
000013D3  0000              add [eax],al
000013D5  0000              add [eax],al
000013D7  0000              add [eax],al
000013D9  0000              add [eax],al
000013DB  0000              add [eax],al
000013DD  0101              add [ecx],eax
000013DF  0000              add [eax],al
000013E1  0100              add [eax],eax
000013E3  0000              add [eax],al
000013E5  0000              add [eax],al
000013E7  0001              add [ecx],al
000013E9  0100              add [eax],eax
000013EB  0000              add [eax],al
000013ED  0101              add [ecx],eax
000013EF  0000              add [eax],al
000013F1  0000              add [eax],al
000013F3  0000              add [eax],al
000013F5  0000              add [eax],al
000013F7  0000              add [eax],al
000013F9  0000              add [eax],al
000013FB  0000              add [eax],al
000013FD  0001              add [ecx],al
000013FF  0100              add [eax],eax
00001401  0000              add [eax],al
00001403  0000              add [eax],al
00001405  0000              add [eax],al
00001407  0001              add [ecx],al
00001409  0101              add [ecx],eax
0000140B  0000              add [eax],al
0000140D  0001              add [ecx],al
0000140F  0100              add [eax],eax
00001411  0000              add [eax],al
00001413  0000              add [eax],al
00001415  0000              add [eax],al
00001417  0000              add [eax],al
00001419  0000              add [eax],al
0000141B  0000              add [eax],al
0000141D  0000              add [eax],al
0000141F  0000              add [eax],al
00001421  0000              add [eax],al
00001423  0000              add [eax],al
00001425  0000              add [eax],al
00001427  0000              add [eax],al
00001429  0000              add [eax],al
0000142B  0001              add [ecx],al
0000142D  0100              add [eax],eax
0000142F  0000              add [eax],al
00001431  0001              add [ecx],al
00001433  0000              add [eax],al
00001435  0000              add [eax],al
00001437  0001              add [ecx],al
00001439  0100              add [eax],eax
0000143B  0101              add [ecx],eax
0000143D  0000              add [eax],al
0000143F  0000              add [eax],al
00001441  0000              add [eax],al
00001443  0000              add [eax],al
00001445  0000              add [eax],al
00001447  0000              add [eax],al
00001449  0000              add [eax],al
0000144B  0000              add [eax],al
0000144D  0001              add [ecx],al
0000144F  0100              add [eax],eax
00001451  0000              add [eax],al
00001453  0000              add [eax],al
00001455  0000              add [eax],al
00001457  0000              add [eax],al
00001459  0101              add [ecx],eax
0000145B  0000              add [eax],al
0000145D  0000              add [eax],al
0000145F  0001              add [ecx],al
00001461  0101              add [ecx],eax
00001463  0100              add [eax],eax
00001465  0000              add [eax],al
00001467  0000              add [eax],al
00001469  0000              add [eax],al
0000146B  0000              add [eax],al
0000146D  0000              add [eax],al
0000146F  0000              add [eax],al
00001471  0000              add [eax],al
00001473  0000              add [eax],al
00001475  0000              add [eax],al
00001477  0000              add [eax],al
00001479  0000              add [eax],al
0000147B  0001              add [ecx],al
0000147D  0101              add [ecx],eax
0000147F  0101              add [ecx],eax
00001481  0101              add [ecx],eax
00001483  0100              add [eax],eax
00001485  0000              add [eax],al
00001487  0001              add [ecx],al
00001489  0100              add [eax],eax
0000148B  0000              add [eax],al
0000148D  0101              add [ecx],eax
0000148F  0000              add [eax],al
00001491  0000              add [eax],al
00001493  0000              add [eax],al
00001495  0000              add [eax],al
00001497  0000              add [eax],al
00001499  0000              add [eax],al
0000149B  0000              add [eax],al
0000149D  0001              add [ecx],al
0000149F  0100              add [eax],eax
000014A1  0000              add [eax],al
000014A3  0000              add [eax],al
000014A5  0000              add [eax],al
000014A7  0001              add [ecx],al
000014A9  0100              add [eax],eax
000014AB  0000              add [eax],al
000014AD  0000              add [eax],al
000014AF  0000              add [eax],al
000014B1  0000              add [eax],al
000014B3  0001              add [ecx],al
000014B5  0100              add [eax],eax
000014B7  0000              add [eax],al
000014B9  0000              add [eax],al
000014BB  0000              add [eax],al
000014BD  0000              add [eax],al
000014BF  0000              add [eax],al
000014C1  0000              add [eax],al
000014C3  0000              add [eax],al
000014C5  0000              add [eax],al
000014C7  0000              add [eax],al
000014C9  0000              add [eax],al
000014CB  0100              add [eax],eax
000014CD  0000              add [eax],al
000014CF  0000              add [eax],al
000014D1  0000              add [eax],al
000014D3  0101              add [ecx],eax
000014D5  0000              add [eax],al
000014D7  0001              add [ecx],al
000014D9  0100              add [eax],eax
000014DB  0000              add [eax],al
000014DD  0000              add [eax],al
000014DF  0101              add [ecx],eax
000014E1  0000              add [eax],al
000014E3  0000              add [eax],al
000014E5  0000              add [eax],al
000014E7  0000              add [eax],al
000014E9  0000              add [eax],al
000014EB  0000              add [eax],al
000014ED  0000              add [eax],al
000014EF  0101              add [ecx],eax
000014F1  0101              add [ecx],eax
000014F3  0101              add [ecx],eax
000014F5  0101              add [ecx],eax
000014F7  0101              add [ecx],eax
000014F9  0000              add [eax],al
000014FB  0000              add [eax],al
000014FD  0001              add [ecx],al
000014FF  0101              add [ecx],eax
00001501  0101              add [ecx],eax
00001503  0101              add [ecx],eax
00001505  0000              add [eax],al
00001507  0000              add [eax],al
00001509  0000              add [eax],al
0000150B  0000              add [eax],al
0000150D  0000              add [eax],al
0000150F  0000              add [eax],al
00001511  0000              add [eax],al
00001513  0000              add [eax],al
00001515  0000              add [eax],al
00001517  0000              add [eax],al
00001519  0000              add [eax],al
0000151B  0000              add [eax],al
0000151D  0000              add [eax],al
0000151F  0000              add [eax],al
00001521  0000              add [eax],al
00001523  0000              add [eax],al
00001525  0000              add [eax],al
00001527  0000              add [eax],al
00001529  0000              add [eax],al
0000152B  0000              add [eax],al
0000152D  0000              add [eax],al
0000152F  0000              add [eax],al
00001531  0000              add [eax],al
00001533  0000              add [eax],al
00001535  0000              add [eax],al
00001537  0000              add [eax],al
00001539  0000              add [eax],al
0000153B  0000              add [eax],al
0000153D  0000              add [eax],al
0000153F  0000              add [eax],al
00001541  0000              add [eax],al
00001543  0000              add [eax],al
00001545  0000              add [eax],al
00001547  0000              add [eax],al
00001549  0000              add [eax],al
0000154B  0000              add [eax],al
0000154D  0000              add [eax],al
0000154F  0000              add [eax],al
00001551  0000              add [eax],al
00001553  0000              add [eax],al
00001555  0000              add [eax],al
00001557  0000              add [eax],al
00001559  0000              add [eax],al
0000155B  0000              add [eax],al
0000155D  0000              add [eax],al
0000155F  0000              add [eax],al
00001561  0000              add [eax],al
00001563  0000              add [eax],al
00001565  0000              add [eax],al
00001567  0000              add [eax],al
00001569  0000              add [eax],al
0000156B  0000              add [eax],al
0000156D  0000              add [eax],al
0000156F  0000              add [eax],al
00001571  0000              add [eax],al
00001573  0000              add [eax],al
00001575  0000              add [eax],al
00001577  0000              add [eax],al
00001579  0000              add [eax],al
0000157B  0101              add [ecx],eax
0000157D  0101              add [ecx],eax
0000157F  0000              add [eax],al
00001581  0000              add [eax],al
00001583  0000              add [eax],al
00001585  0000              add [eax],al
00001587  0000              add [eax],al
00001589  0000              add [eax],al
0000158B  0000              add [eax],al
0000158D  0000              add [eax],al
0000158F  0001              add [ecx],al
00001591  0101              add [ecx],eax
00001593  0101              add [ecx],eax
00001595  0000              add [eax],al
00001597  0000              add [eax],al
00001599  0000              add [eax],al
0000159B  0000              add [eax],al
0000159D  0000              add [eax],al
0000159F  0000              add [eax],al
000015A1  0000              add [eax],al
000015A3  0000              add [eax],al
000015A5  0000              add [eax],al
000015A7  0000              add [eax],al
000015A9  0000              add [eax],al
000015AB  0000              add [eax],al
000015AD  0000              add [eax],al
000015AF  0000              add [eax],al
000015B1  0000              add [eax],al
000015B3  0000              add [eax],al
000015B5  0000              add [eax],al
000015B7  0000              add [eax],al
000015B9  0000              add [eax],al
000015BB  0000              add [eax],al
000015BD  0000              add [eax],al
000015BF  0000              add [eax],al
000015C1  0000              add [eax],al
000015C3  0000              add [eax],al
000015C5  0000              add [eax],al
000015C7  0000              add [eax],al
000015C9  0001              add [ecx],al
000015CB  0101              add [ecx],eax
000015CD  0100              add [eax],eax
000015CF  0000              add [eax],al
000015D1  0000              add [eax],al
000015D3  0000              add [eax],al
000015D5  0000              add [eax],al
000015D7  0000              add [eax],al
000015D9  0000              add [eax],al
000015DB  0000              add [eax],al
000015DD  0000              add [eax],al
000015DF  0000              add [eax],al
000015E1  0101              add [ecx],eax
000015E3  0101              add [ecx],eax
000015E5  0100              add [eax],eax
000015E7  0000              add [eax],al
000015E9  0000              add [eax],al
000015EB  0000              add [eax],al
000015ED  0000              add [eax],al
000015EF  0000              add [eax],al
000015F1  0000              add [eax],al
000015F3  0000              add [eax],al
000015F5  0000              add [eax],al
000015F7  0000              add [eax],al
000015F9  0000              add [eax],al
000015FB  0000              add [eax],al
000015FD  0000              add [eax],al
000015FF  0000              add [eax],al
00001601  0000              add [eax],al
00001603  0000              add [eax],al
00001605  0000              add [eax],al
00001607  0000              add [eax],al
00001609  0000              add [eax],al
0000160B  0000              add [eax],al
0000160D  0000              add [eax],al
0000160F  0000              add [eax],al
00001611  0000              add [eax],al
00001613  0000              add [eax],al
00001615  0000              add [eax],al
00001617  0000              add [eax],al
00001619  0101              add [ecx],eax
0000161B  0101              add [ecx],eax
0000161D  0100              add [eax],eax
0000161F  0000              add [eax],al
00001621  0000              add [eax],al
00001623  0000              add [eax],al
00001625  0000              add [eax],al
00001627  0000              add [eax],al
00001629  0000              add [eax],al
0000162B  0000              add [eax],al
0000162D  0000              add [eax],al
0000162F  0000              add [eax],al
00001631  0001              add [ecx],al
00001633  0101              add [ecx],eax
00001635  0101              add [ecx],eax
00001637  0000              add [eax],al
00001639  0000              add [eax],al
0000163B  0000              add [eax],al
0000163D  0000              add [eax],al
0000163F  0000              add [eax],al
00001641  0000              add [eax],al
00001643  0000              add [eax],al
00001645  0000              add [eax],al
00001647  0000              add [eax],al
00001649  0000              add [eax],al
0000164B  0000              add [eax],al
0000164D  0000              add [eax],al
0000164F  0000              add [eax],al
00001651  0000              add [eax],al
00001653  0000              add [eax],al
00001655  0000              add [eax],al
00001657  0000              add [eax],al
00001659  0000              add [eax],al
0000165B  0000              add [eax],al
0000165D  0000              add [eax],al
0000165F  0000              add [eax],al
00001661  0000              add [eax],al
00001663  0000              add [eax],al
00001665  0000              add [eax],al
00001667  0001              add [ecx],al
00001669  0101              add [ecx],eax
0000166B  0101              add [ecx],eax
0000166D  0000              add [eax],al
0000166F  0000              add [eax],al
00001671  0000              add [eax],al
00001673  0000              add [eax],al
00001675  0000              add [eax],al
00001677  0000              add [eax],al
00001679  0000              add [eax],al
0000167B  0000              add [eax],al
0000167D  0000              add [eax],al
0000167F  0000              add [eax],al
00001681  0000              add [eax],al
00001683  0101              add [ecx],eax
00001685  0101              add [ecx],eax
00001687  0100              add [eax],eax
00001689  0000              add [eax],al
0000168B  0000              add [eax],al
0000168D  0000              add [eax],al
0000168F  0000              add [eax],al
00001691  0000              add [eax],al
00001693  0000              add [eax],al
00001695  0000              add [eax],al
00001697  0000              add [eax],al
00001699  0000              add [eax],al
0000169B  0000              add [eax],al
0000169D  0000              add [eax],al
0000169F  0000              add [eax],al
000016A1  0000              add [eax],al
000016A3  0000              add [eax],al
000016A5  0000              add [eax],al
000016A7  0000              add [eax],al
000016A9  0000              add [eax],al
000016AB  0000              add [eax],al
000016AD  0000              add [eax],al
000016AF  0000              add [eax],al
000016B1  0000              add [eax],al
000016B3  0000              add [eax],al
000016B5  0000              add [eax],al
000016B7  0000              add [eax],al
000016B9  0000              add [eax],al
000016BB  0000              add [eax],al
000016BD  0000              add [eax],al
000016BF  0000              add [eax],al
000016C1  0000              add [eax],al
000016C3  0000              add [eax],al
000016C5  0000              add [eax],al
000016C7  0000              add [eax],al
000016C9  0000              add [eax],al
000016CB  0000              add [eax],al
000016CD  0000              add [eax],al
000016CF  0000              add [eax],al
000016D1  0000              add [eax],al
000016D3  0000              add [eax],al
000016D5  0000              add [eax],al
000016D7  0000              add [eax],al
000016D9  0000              add [eax],al
000016DB  0000              add [eax],al
000016DD  0000              add [eax],al
000016DF  0000              add [eax],al
000016E1  0000              add [eax],al
000016E3  0000              add [eax],al
000016E5  0000              add [eax],al
000016E7  0000              add [eax],al
000016E9  0000              add [eax],al
000016EB  0000              add [eax],al
000016ED  0000              add [eax],al
000016EF  0000              add [eax],al
000016F1  0000              add [eax],al
000016F3  0000              add [eax],al
000016F5  0000              add [eax],al
000016F7  0000              add [eax],al
000016F9  0000              add [eax],al
000016FB  0000              add [eax],al
000016FD  0000              add [eax],al
000016FF  0000              add [eax],al
00001701  0000              add [eax],al
00001703  0000              add [eax],al
00001705  0000              add [eax],al
00001707  0000              add [eax],al
00001709  0000              add [eax],al
0000170B  0000              add [eax],al
0000170D  0000              add [eax],al
0000170F  0000              add [eax],al
00001711  0000              add [eax],al
00001713  0000              add [eax],al
00001715  0000              add [eax],al
00001717  0000              add [eax],al
00001719  0000              add [eax],al
0000171B  0000              add [eax],al
0000171D  0000              add [eax],al
0000171F  0000              add [eax],al
00001721  0000              add [eax],al
00001723  0000              add [eax],al
00001725  0000              add [eax],al
00001727  0000              add [eax],al
00001729  0000              add [eax],al
0000172B  0000              add [eax],al
0000172D  0000              add [eax],al
0000172F  0000              add [eax],al
00001731  0000              add [eax],al
00001733  0000              add [eax],al
00001735  0000              add [eax],al
00001737  0000              add [eax],al
00001739  0000              add [eax],al
0000173B  0000              add [eax],al
0000173D  0000              add [eax],al
0000173F  0000              add [eax],al
00001741  0000              add [eax],al
00001743  0000              add [eax],al
00001745  0000              add [eax],al
00001747  0000              add [eax],al
00001749  0000              add [eax],al
0000174B  0000              add [eax],al
0000174D  0000              add [eax],al
0000174F  0000              add [eax],al
00001751  0000              add [eax],al
00001753  0000              add [eax],al
00001755  0000              add [eax],al
00001757  0000              add [eax],al
00001759  0000              add [eax],al
0000175B  0000              add [eax],al
0000175D  0000              add [eax],al
0000175F  0000              add [eax],al
00001761  0000              add [eax],al
00001763  0000              add [eax],al
00001765  0000              add [eax],al
00001767  0000              add [eax],al
00001769  0000              add [eax],al
0000176B  0000              add [eax],al
0000176D  0000              add [eax],al
0000176F  0000              add [eax],al
00001771  0000              add [eax],al
00001773  0000              add [eax],al
00001775  0000              add [eax],al
00001777  0000              add [eax],al
00001779  0000              add [eax],al
0000177B  0000              add [eax],al
0000177D  0000              add [eax],al
0000177F  0000              add [eax],al
00001781  0000              add [eax],al
00001783  0000              add [eax],al
00001785  0000              add [eax],al
00001787  0000              add [eax],al
00001789  0000              add [eax],al
0000178B  0000              add [eax],al
0000178D  0000              add [eax],al
0000178F  0000              add [eax],al
00001791  0000              add [eax],al
00001793  0000              add [eax],al
00001795  0000              add [eax],al
00001797  0000              add [eax],al
00001799  0000              add [eax],al
0000179B  0000              add [eax],al
0000179D  0000              add [eax],al
0000179F  0000              add [eax],al
000017A1  0000              add [eax],al
000017A3  0000              add [eax],al
000017A5  0000              add [eax],al
000017A7  0000              add [eax],al
000017A9  0000              add [eax],al
000017AB  0000              add [eax],al
000017AD  0000              add [eax],al
000017AF  0000              add [eax],al
000017B1  0000              add [eax],al
000017B3  0000              add [eax],al
000017B5  0000              add [eax],al
000017B7  0000              add [eax],al
000017B9  0000              add [eax],al
000017BB  0000              add [eax],al
000017BD  0000              add [eax],al
000017BF  0000              add [eax],al
000017C1  0000              add [eax],al
000017C3  0000              add [eax],al
000017C5  0000              add [eax],al
000017C7  0000              add [eax],al
000017C9  0000              add [eax],al
000017CB  0000              add [eax],al
000017CD  0000              add [eax],al
000017CF  0000              add [eax],al
000017D1  0000              add [eax],al
000017D3  0000              add [eax],al
000017D5  0000              add [eax],al
000017D7  0000              add [eax],al
000017D9  0000              add [eax],al
000017DB  0000              add [eax],al
000017DD  0000              add [eax],al
000017DF  0000              add [eax],al
000017E1  0000              add [eax],al
000017E3  0000              add [eax],al
000017E5  0000              add [eax],al
000017E7  0000              add [eax],al
000017E9  0000              add [eax],al
000017EB  0000              add [eax],al
000017ED  0000              add [eax],al
000017EF  0000              add [eax],al
000017F1  0000              add [eax],al
000017F3  0000              add [eax],al
000017F5  0000              add [eax],al
000017F7  0000              add [eax],al
000017F9  0000              add [eax],al
000017FB  0000              add [eax],al
000017FD  0000              add [eax],al
000017FF  0000              add [eax],al
00001801  0000              add [eax],al
00001803  0000              add [eax],al
00001805  0000              add [eax],al
00001807  0000              add [eax],al
00001809  0000              add [eax],al
0000180B  0000              add [eax],al
0000180D  0000              add [eax],al
0000180F  0000              add [eax],al
00001811  0000              add [eax],al
00001813  0000              add [eax],al
00001815  0000              add [eax],al
00001817  0000              add [eax],al
00001819  0000              add [eax],al
0000181B  0000              add [eax],al
0000181D  0000              add [eax],al
0000181F  0000              add [eax],al
00001821  0000              add [eax],al
00001823  0000              add [eax],al
00001825  0000              add [eax],al
00001827  0000              add [eax],al
00001829  0000              add [eax],al
0000182B  0000              add [eax],al
0000182D  0000              add [eax],al
0000182F  0000              add [eax],al
00001831  0000              add [eax],al
00001833  0000              add [eax],al
00001835  0000              add [eax],al
00001837  0000              add [eax],al
00001839  0000              add [eax],al
0000183B  0000              add [eax],al
0000183D  0000              add [eax],al
0000183F  0000              add [eax],al
00001841  0000              add [eax],al
00001843  0000              add [eax],al
00001845  0000              add [eax],al
00001847  0000              add [eax],al
00001849  0000              add [eax],al
0000184B  0000              add [eax],al
0000184D  0000              add [eax],al
0000184F  0000              add [eax],al
00001851  0000              add [eax],al
00001853  0000              add [eax],al
00001855  0000              add [eax],al
00001857  0000              add [eax],al
00001859  0000              add [eax],al
0000185B  0000              add [eax],al
0000185D  0000              add [eax],al
0000185F  0000              add [eax],al
00001861  0000              add [eax],al
00001863  0000              add [eax],al
00001865  0000              add [eax],al
00001867  0000              add [eax],al
00001869  0000              add [eax],al
0000186B  0000              add [eax],al
0000186D  0000              add [eax],al
0000186F  0000              add [eax],al
00001871  0000              add [eax],al
00001873  0000              add [eax],al
00001875  0000              add [eax],al
00001877  0000              add [eax],al
00001879  0000              add [eax],al
0000187B  0000              add [eax],al
0000187D  0000              add [eax],al
0000187F  0000              add [eax],al
00001881  0000              add [eax],al
00001883  0000              add [eax],al
00001885  0000              add [eax],al
00001887  0000              add [eax],al
00001889  0000              add [eax],al
0000188B  0000              add [eax],al
0000188D  0000              add [eax],al
0000188F  0000              add [eax],al
00001891  0000              add [eax],al
00001893  0000              add [eax],al
00001895  0000              add [eax],al
00001897  0000              add [eax],al
00001899  0000              add [eax],al
0000189B  0000              add [eax],al
0000189D  0000              add [eax],al
0000189F  0000              add [eax],al
000018A1  0000              add [eax],al
000018A3  0000              add [eax],al
000018A5  0000              add [eax],al
000018A7  0000              add [eax],al
000018A9  0000              add [eax],al
000018AB  0000              add [eax],al
000018AD  0000              add [eax],al
000018AF  0000              add [eax],al
000018B1  0000              add [eax],al
000018B3  0000              add [eax],al
000018B5  0000              add [eax],al
000018B7  0000              add [eax],al
000018B9  0000              add [eax],al
000018BB  0000              add [eax],al
000018BD  0000              add [eax],al
000018BF  0000              add [eax],al
000018C1  0000              add [eax],al
000018C3  0000              add [eax],al
000018C5  0000              add [eax],al
000018C7  0000              add [eax],al
000018C9  0000              add [eax],al
000018CB  0000              add [eax],al
000018CD  0000              add [eax],al
000018CF  0000              add [eax],al
000018D1  0000              add [eax],al
000018D3  0000              add [eax],al
000018D5  0000              add [eax],al
000018D7  0000              add [eax],al
000018D9  0000              add [eax],al
000018DB  0000              add [eax],al
000018DD  0000              add [eax],al
000018DF  0000              add [eax],al
000018E1  0000              add [eax],al
000018E3  0000              add [eax],al
000018E5  0000              add [eax],al
000018E7  0000              add [eax],al
000018E9  0000              add [eax],al
000018EB  0000              add [eax],al
000018ED  0000              add [eax],al
000018EF  0000              add [eax],al
000018F1  0000              add [eax],al
000018F3  0000              add [eax],al
000018F5  0000              add [eax],al
000018F7  0000              add [eax],al
000018F9  0000              add [eax],al
000018FB  0000              add [eax],al
000018FD  0000              add [eax],al
000018FF  0000              add [eax],al
00001901  0000              add [eax],al
00001903  0000              add [eax],al
00001905  0000              add [eax],al
00001907  0000              add [eax],al
00001909  0000              add [eax],al
0000190B  0000              add [eax],al
0000190D  0000              add [eax],al
0000190F  0000              add [eax],al
00001911  0000              add [eax],al
00001913  0000              add [eax],al
00001915  0000              add [eax],al
00001917  0000              add [eax],al
00001919  0000              add [eax],al
0000191B  0000              add [eax],al
0000191D  0000              add [eax],al
0000191F  0000              add [eax],al
00001921  0000              add [eax],al
00001923  0000              add [eax],al
00001925  0000              add [eax],al
00001927  0000              add [eax],al
00001929  0000              add [eax],al
0000192B  0000              add [eax],al
0000192D  0000              add [eax],al
0000192F  0000              add [eax],al
00001931  0000              add [eax],al
00001933  0000              add [eax],al
00001935  0000              add [eax],al
00001937  0000              add [eax],al
00001939  0000              add [eax],al
0000193B  0000              add [eax],al
0000193D  0000              add [eax],al
0000193F  0000              add [eax],al
00001941  0000              add [eax],al
00001943  0000              add [eax],al
00001945  0000              add [eax],al
00001947  0000              add [eax],al
00001949  0000              add [eax],al
0000194B  0000              add [eax],al
0000194D  0000              add [eax],al
0000194F  0000              add [eax],al
00001951  0000              add [eax],al
00001953  0000              add [eax],al
00001955  0000              add [eax],al
00001957  0000              add [eax],al
00001959  0000              add [eax],al
0000195B  0000              add [eax],al
0000195D  0000              add [eax],al
0000195F  0000              add [eax],al
00001961  0000              add [eax],al
00001963  0000              add [eax],al
00001965  0000              add [eax],al
00001967  0000              add [eax],al
00001969  0000              add [eax],al
0000196B  0000              add [eax],al
0000196D  0000              add [eax],al
0000196F  0000              add [eax],al
00001971  0000              add [eax],al
00001973  0000              add [eax],al
00001975  0000              add [eax],al
00001977  0000              add [eax],al
00001979  0000              add [eax],al
0000197B  0000              add [eax],al
0000197D  0000              add [eax],al
0000197F  0000              add [eax],al
00001981  0000              add [eax],al
00001983  0000              add [eax],al
00001985  0000              add [eax],al
00001987  0000              add [eax],al
00001989  0000              add [eax],al
0000198B  0000              add [eax],al
0000198D  0000              add [eax],al
0000198F  0000              add [eax],al
00001991  0000              add [eax],al
00001993  0000              add [eax],al
00001995  0000              add [eax],al
00001997  0000              add [eax],al
00001999  0000              add [eax],al
0000199B  0000              add [eax],al
0000199D  0000              add [eax],al
0000199F  0000              add [eax],al
000019A1  0000              add [eax],al
000019A3  0000              add [eax],al
000019A5  0000              add [eax],al
000019A7  0000              add [eax],al
000019A9  0000              add [eax],al
000019AB  0000              add [eax],al
000019AD  0000              add [eax],al
000019AF  0000              add [eax],al
000019B1  0000              add [eax],al
000019B3  0000              add [eax],al
000019B5  0000              add [eax],al
000019B7  0000              add [eax],al
000019B9  0000              add [eax],al
000019BB  0000              add [eax],al
000019BD  0000              add [eax],al
000019BF  0000              add [eax],al
000019C1  0000              add [eax],al
000019C3  0000              add [eax],al
000019C5  0000              add [eax],al
000019C7  0000              add [eax],al
000019C9  0000              add [eax],al
000019CB  0000              add [eax],al
000019CD  0000              add [eax],al
000019CF  0000              add [eax],al
000019D1  0000              add [eax],al
000019D3  0000              add [eax],al
000019D5  0000              add [eax],al
000019D7  0000              add [eax],al
000019D9  0000              add [eax],al
000019DB  0000              add [eax],al
000019DD  0000              add [eax],al
000019DF  0000              add [eax],al
000019E1  0000              add [eax],al
000019E3  0000              add [eax],al
000019E5  0000              add [eax],al
000019E7  0000              add [eax],al
000019E9  0000              add [eax],al
000019EB  0000              add [eax],al
000019ED  0000              add [eax],al
000019EF  0000              add [eax],al
000019F1  0000              add [eax],al
000019F3  0000              add [eax],al
000019F5  0000              add [eax],al
000019F7  0000              add [eax],al
000019F9  0000              add [eax],al
000019FB  0000              add [eax],al
000019FD  0000              add [eax],al
000019FF  0000              add [eax],al
00001A01  0000              add [eax],al
00001A03  0000              add [eax],al
00001A05  0000              add [eax],al
00001A07  0000              add [eax],al
00001A09  0000              add [eax],al
00001A0B  0000              add [eax],al
00001A0D  0000              add [eax],al
00001A0F  0000              add [eax],al
00001A11  0000              add [eax],al
00001A13  0000              add [eax],al
00001A15  0000              add [eax],al
00001A17  0000              add [eax],al
00001A19  0000              add [eax],al
00001A1B  0000              add [eax],al
00001A1D  0000              add [eax],al
00001A1F  0000              add [eax],al
00001A21  0000              add [eax],al
00001A23  0000              add [eax],al
00001A25  0000              add [eax],al
00001A27  0000              add [eax],al
00001A29  0000              add [eax],al
00001A2B  0000              add [eax],al
00001A2D  0000              add [eax],al
00001A2F  0000              add [eax],al
00001A31  0000              add [eax],al
00001A33  0000              add [eax],al
00001A35  0000              add [eax],al
00001A37  0000              add [eax],al
00001A39  0000              add [eax],al
00001A3B  0000              add [eax],al
00001A3D  0000              add [eax],al
00001A3F  0000              add [eax],al
00001A41  0000              add [eax],al
00001A43  0000              add [eax],al
00001A45  0000              add [eax],al
00001A47  0000              add [eax],al
00001A49  0000              add [eax],al
00001A4B  0000              add [eax],al
00001A4D  0000              add [eax],al
00001A4F  0000              add [eax],al
00001A51  0000              add [eax],al
00001A53  0000              add [eax],al
00001A55  0000              add [eax],al
00001A57  0000              add [eax],al
00001A59  0000              add [eax],al
00001A5B  0000              add [eax],al
00001A5D  0000              add [eax],al
00001A5F  0000              add [eax],al
00001A61  0000              add [eax],al
00001A63  0000              add [eax],al
00001A65  0000              add [eax],al
00001A67  0000              add [eax],al
00001A69  0000              add [eax],al
00001A6B  0000              add [eax],al
00001A6D  0000              add [eax],al
00001A6F  0000              add [eax],al
00001A71  0000              add [eax],al
00001A73  0000              add [eax],al
00001A75  0000              add [eax],al
00001A77  0000              add [eax],al
00001A79  0000              add [eax],al
00001A7B  0000              add [eax],al
00001A7D  0000              add [eax],al
00001A7F  0000              add [eax],al
00001A81  0000              add [eax],al
00001A83  0000              add [eax],al
00001A85  0000              add [eax],al
00001A87  0000              add [eax],al
00001A89  0000              add [eax],al
00001A8B  0000              add [eax],al
00001A8D  0000              add [eax],al
00001A8F  0000              add [eax],al
00001A91  0000              add [eax],al
00001A93  0000              add [eax],al
00001A95  0000              add [eax],al
00001A97  0000              add [eax],al
00001A99  0000              add [eax],al
00001A9B  0000              add [eax],al
00001A9D  0000              add [eax],al
00001A9F  0000              add [eax],al
00001AA1  0000              add [eax],al
00001AA3  0000              add [eax],al
00001AA5  0000              add [eax],al
00001AA7  0000              add [eax],al
00001AA9  0000              add [eax],al
00001AAB  0000              add [eax],al
00001AAD  0000              add [eax],al
00001AAF  0000              add [eax],al
00001AB1  0000              add [eax],al
00001AB3  0000              add [eax],al
00001AB5  0000              add [eax],al
00001AB7  0000              add [eax],al
00001AB9  0000              add [eax],al
00001ABB  0000              add [eax],al
00001ABD  0000              add [eax],al
00001ABF  0000              add [eax],al
00001AC1  0000              add [eax],al
00001AC3  0000              add [eax],al
00001AC5  0000              add [eax],al
00001AC7  0000              add [eax],al
00001AC9  0000              add [eax],al
00001ACB  0000              add [eax],al
00001ACD  0000              add [eax],al
00001ACF  0000              add [eax],al
00001AD1  0000              add [eax],al
00001AD3  0000              add [eax],al
00001AD5  0000              add [eax],al
00001AD7  0000              add [eax],al
00001AD9  0000              add [eax],al
00001ADB  0000              add [eax],al
00001ADD  0000              add [eax],al
00001ADF  0000              add [eax],al
00001AE1  0000              add [eax],al
00001AE3  0000              add [eax],al
00001AE5  0000              add [eax],al
00001AE7  0000              add [eax],al
00001AE9  0000              add [eax],al
00001AEB  0000              add [eax],al
00001AED  0000              add [eax],al
00001AEF  0000              add [eax],al
00001AF1  0000              add [eax],al
00001AF3  0000              add [eax],al
00001AF5  0000              add [eax],al
00001AF7  0000              add [eax],al
00001AF9  0000              add [eax],al
00001AFB  0000              add [eax],al
00001AFD  0000              add [eax],al
00001AFF  0000              add [eax],al
00001B01  0000              add [eax],al
00001B03  0000              add [eax],al
00001B05  0000              add [eax],al
00001B07  0000              add [eax],al
00001B09  0000              add [eax],al
00001B0B  0000              add [eax],al
00001B0D  0000              add [eax],al
00001B0F  0000              add [eax],al
00001B11  0000              add [eax],al
00001B13  0000              add [eax],al
00001B15  0000              add [eax],al
00001B17  0000              add [eax],al
00001B19  0000              add [eax],al
00001B1B  0000              add [eax],al
00001B1D  0000              add [eax],al
00001B1F  0000              add [eax],al
00001B21  0000              add [eax],al
00001B23  0000              add [eax],al
00001B25  0000              add [eax],al
00001B27  0000              add [eax],al
00001B29  0000              add [eax],al
00001B2B  0000              add [eax],al
00001B2D  0000              add [eax],al
00001B2F  0000              add [eax],al
00001B31  0000              add [eax],al
00001B33  0000              add [eax],al
00001B35  0000              add [eax],al
00001B37  0000              add [eax],al
00001B39  0000              add [eax],al
00001B3B  0000              add [eax],al
00001B3D  0000              add [eax],al
00001B3F  0000              add [eax],al
00001B41  0000              add [eax],al
00001B43  0000              add [eax],al
00001B45  0000              add [eax],al
00001B47  0000              add [eax],al
00001B49  0000              add [eax],al
00001B4B  0000              add [eax],al
00001B4D  0000              add [eax],al
00001B4F  0000              add [eax],al
00001B51  0000              add [eax],al
00001B53  0000              add [eax],al
00001B55  0000              add [eax],al
00001B57  0000              add [eax],al
00001B59  0000              add [eax],al
00001B5B  0000              add [eax],al
00001B5D  0000              add [eax],al
00001B5F  0000              add [eax],al
00001B61  0000              add [eax],al
00001B63  0000              add [eax],al
00001B65  0000              add [eax],al
00001B67  0000              add [eax],al
00001B69  0000              add [eax],al
00001B6B  0000              add [eax],al
00001B6D  0000              add [eax],al
00001B6F  0000              add [eax],al
00001B71  0000              add [eax],al
00001B73  0000              add [eax],al
00001B75  0000              add [eax],al
00001B77  0000              add [eax],al
00001B79  0000              add [eax],al
00001B7B  0000              add [eax],al
00001B7D  0000              add [eax],al
00001B7F  0000              add [eax],al
00001B81  0000              add [eax],al
00001B83  0000              add [eax],al
00001B85  0000              add [eax],al
00001B87  0000              add [eax],al
00001B89  0000              add [eax],al
00001B8B  0000              add [eax],al
00001B8D  0000              add [eax],al
00001B8F  0000              add [eax],al
00001B91  0000              add [eax],al
00001B93  0000              add [eax],al
00001B95  0000              add [eax],al
00001B97  0000              add [eax],al
00001B99  0000              add [eax],al
00001B9B  0000              add [eax],al
00001B9D  0000              add [eax],al
00001B9F  0000              add [eax],al
00001BA1  0000              add [eax],al
00001BA3  0000              add [eax],al
00001BA5  0000              add [eax],al
00001BA7  0000              add [eax],al
00001BA9  0000              add [eax],al
00001BAB  0000              add [eax],al
00001BAD  0000              add [eax],al
00001BAF  0000              add [eax],al
00001BB1  0000              add [eax],al
00001BB3  0000              add [eax],al
00001BB5  0000              add [eax],al
00001BB7  0000              add [eax],al
00001BB9  0000              add [eax],al
00001BBB  0000              add [eax],al
00001BBD  0000              add [eax],al
00001BBF  0000              add [eax],al
00001BC1  0000              add [eax],al
00001BC3  0000              add [eax],al
00001BC5  0000              add [eax],al
00001BC7  0000              add [eax],al
00001BC9  0000              add [eax],al
00001BCB  0000              add [eax],al
00001BCD  0000              add [eax],al
00001BCF  0000              add [eax],al
00001BD1  0000              add [eax],al
00001BD3  0000              add [eax],al
00001BD5  0000              add [eax],al
00001BD7  0000              add [eax],al
00001BD9  0000              add [eax],al
00001BDB  0000              add [eax],al
00001BDD  0000              add [eax],al
00001BDF  0000              add [eax],al
00001BE1  0000              add [eax],al
00001BE3  0000              add [eax],al
00001BE5  0000              add [eax],al
00001BE7  0000              add [eax],al
00001BE9  0000              add [eax],al
00001BEB  0000              add [eax],al
00001BED  0000              add [eax],al
00001BEF  0000              add [eax],al
00001BF1  0000              add [eax],al
00001BF3  0000              add [eax],al
00001BF5  0000              add [eax],al
00001BF7  0000              add [eax],al
00001BF9  0000              add [eax],al
00001BFB  0000              add [eax],al
00001BFD  0000              add [eax],al
00001BFF  0000              add [eax],al
00001C01  0000              add [eax],al
00001C03  0000              add [eax],al
00001C05  0000              add [eax],al
00001C07  0000              add [eax],al
00001C09  0000              add [eax],al
00001C0B  0000              add [eax],al
00001C0D  0000              add [eax],al
00001C0F  0000              add [eax],al
00001C11  0000              add [eax],al
00001C13  0000              add [eax],al
00001C15  0000              add [eax],al
00001C17  0000              add [eax],al
00001C19  0000              add [eax],al
00001C1B  0000              add [eax],al
00001C1D  0000              add [eax],al
00001C1F  0000              add [eax],al
00001C21  0000              add [eax],al
00001C23  0000              add [eax],al
00001C25  0000              add [eax],al
00001C27  0000              add [eax],al
00001C29  0000              add [eax],al
00001C2B  0000              add [eax],al
00001C2D  0000              add [eax],al
00001C2F  0000              add [eax],al
00001C31  0000              add [eax],al
00001C33  0000              add [eax],al
00001C35  0000              add [eax],al
00001C37  0000              add [eax],al
00001C39  0000              add [eax],al
00001C3B  0000              add [eax],al
00001C3D  0000              add [eax],al
00001C3F  0000              add [eax],al
00001C41  0000              add [eax],al
00001C43  0000              add [eax],al
00001C45  0000              add [eax],al
00001C47  0000              add [eax],al
00001C49  0000              add [eax],al
00001C4B  0000              add [eax],al
00001C4D  0000              add [eax],al
00001C4F  0000              add [eax],al
00001C51  0000              add [eax],al
00001C53  0000              add [eax],al
00001C55  0000              add [eax],al
00001C57  0000              add [eax],al
00001C59  0000              add [eax],al
00001C5B  0000              add [eax],al
00001C5D  0000              add [eax],al
00001C5F  0000              add [eax],al
00001C61  0000              add [eax],al
00001C63  0000              add [eax],al
00001C65  0000              add [eax],al
00001C67  0000              add [eax],al
00001C69  0000              add [eax],al
00001C6B  0000              add [eax],al
00001C6D  0000              add [eax],al
00001C6F  0000              add [eax],al
00001C71  0000              add [eax],al
00001C73  0000              add [eax],al
00001C75  0000              add [eax],al
00001C77  0000              add [eax],al
00001C79  0000              add [eax],al
00001C7B  0000              add [eax],al
00001C7D  0000              add [eax],al
00001C7F  0000              add [eax],al
00001C81  0000              add [eax],al
00001C83  0000              add [eax],al
00001C85  0000              add [eax],al
00001C87  0000              add [eax],al
00001C89  0000              add [eax],al
00001C8B  0000              add [eax],al
00001C8D  0000              add [eax],al
00001C8F  0000              add [eax],al
00001C91  0000              add [eax],al
00001C93  0000              add [eax],al
00001C95  0000              add [eax],al
00001C97  0000              add [eax],al
00001C99  0000              add [eax],al
00001C9B  0000              add [eax],al
00001C9D  0000              add [eax],al
00001C9F  0000              add [eax],al
00001CA1  0000              add [eax],al
00001CA3  0000              add [eax],al
00001CA5  0000              add [eax],al
00001CA7  0000              add [eax],al
00001CA9  0000              add [eax],al
00001CAB  0000              add [eax],al
00001CAD  0000              add [eax],al
00001CAF  0000              add [eax],al
00001CB1  0000              add [eax],al
00001CB3  0000              add [eax],al
00001CB5  0000              add [eax],al
00001CB7  0000              add [eax],al
00001CB9  0000              add [eax],al
00001CBB  0000              add [eax],al
00001CBD  0000              add [eax],al
00001CBF  0000              add [eax],al
00001CC1  0000              add [eax],al
00001CC3  0000              add [eax],al
00001CC5  0000              add [eax],al
00001CC7  0000              add [eax],al
00001CC9  0000              add [eax],al
00001CCB  0000              add [eax],al
00001CCD  0000              add [eax],al
00001CCF  0000              add [eax],al
00001CD1  0000              add [eax],al
00001CD3  0000              add [eax],al
00001CD5  0000              add [eax],al
00001CD7  0000              add [eax],al
00001CD9  0000              add [eax],al
00001CDB  0000              add [eax],al
00001CDD  0000              add [eax],al
00001CDF  0000              add [eax],al
00001CE1  0000              add [eax],al
00001CE3  0000              add [eax],al
00001CE5  0000              add [eax],al
00001CE7  0000              add [eax],al
00001CE9  0000              add [eax],al
00001CEB  0000              add [eax],al
00001CED  0000              add [eax],al
00001CEF  0000              add [eax],al
00001CF1  0000              add [eax],al
00001CF3  0000              add [eax],al
00001CF5  0000              add [eax],al
00001CF7  0000              add [eax],al
00001CF9  0000              add [eax],al
00001CFB  0000              add [eax],al
00001CFD  0000              add [eax],al
00001CFF  0000              add [eax],al
00001D01  0000              add [eax],al
00001D03  0000              add [eax],al
00001D05  0000              add [eax],al
00001D07  0000              add [eax],al
00001D09  0000              add [eax],al
00001D0B  0000              add [eax],al
00001D0D  0000              add [eax],al
00001D0F  0000              add [eax],al
00001D11  0000              add [eax],al
00001D13  0000              add [eax],al
00001D15  0000              add [eax],al
00001D17  0000              add [eax],al
00001D19  0000              add [eax],al
00001D1B  0000              add [eax],al
00001D1D  0000              add [eax],al
00001D1F  0000              add [eax],al
00001D21  0000              add [eax],al
00001D23  0000              add [eax],al
00001D25  0000              add [eax],al
00001D27  0000              add [eax],al
00001D29  0000              add [eax],al
00001D2B  0000              add [eax],al
00001D2D  0000              add [eax],al
00001D2F  0000              add [eax],al
00001D31  0000              add [eax],al
00001D33  0000              add [eax],al
00001D35  0000              add [eax],al
00001D37  0000              add [eax],al
00001D39  0000              add [eax],al
00001D3B  0000              add [eax],al
00001D3D  0000              add [eax],al
00001D3F  0000              add [eax],al
00001D41  0000              add [eax],al
00001D43  0000              add [eax],al
00001D45  0000              add [eax],al
00001D47  0000              add [eax],al
00001D49  0000              add [eax],al
00001D4B  0000              add [eax],al
00001D4D  0000              add [eax],al
00001D4F  0000              add [eax],al
00001D51  0000              add [eax],al
00001D53  0000              add [eax],al
00001D55  0000              add [eax],al
00001D57  0000              add [eax],al
00001D59  0000              add [eax],al
00001D5B  0000              add [eax],al
00001D5D  0000              add [eax],al
00001D5F  0000              add [eax],al
00001D61  0000              add [eax],al
00001D63  0000              add [eax],al
00001D65  0000              add [eax],al
00001D67  0000              add [eax],al
00001D69  0000              add [eax],al
00001D6B  0000              add [eax],al
00001D6D  0000              add [eax],al
00001D6F  0000              add [eax],al
00001D71  0000              add [eax],al
00001D73  0000              add [eax],al
00001D75  0000              add [eax],al
00001D77  0000              add [eax],al
00001D79  0000              add [eax],al
00001D7B  0000              add [eax],al
00001D7D  0000              add [eax],al
00001D7F  0000              add [eax],al
00001D81  0000              add [eax],al
00001D83  0000              add [eax],al
00001D85  0000              add [eax],al
00001D87  0000              add [eax],al
00001D89  0000              add [eax],al
00001D8B  0000              add [eax],al
00001D8D  0000              add [eax],al
00001D8F  0000              add [eax],al
00001D91  0000              add [eax],al
00001D93  0000              add [eax],al
00001D95  0000              add [eax],al
00001D97  0000              add [eax],al
00001D99  0000              add [eax],al
00001D9B  0000              add [eax],al
00001D9D  0000              add [eax],al
00001D9F  0000              add [eax],al
00001DA1  0000              add [eax],al
00001DA3  0000              add [eax],al
00001DA5  0000              add [eax],al
00001DA7  0000              add [eax],al
00001DA9  0000              add [eax],al
00001DAB  0000              add [eax],al
00001DAD  0000              add [eax],al
00001DAF  0000              add [eax],al
00001DB1  0000              add [eax],al
00001DB3  0000              add [eax],al
00001DB5  0000              add [eax],al
00001DB7  0000              add [eax],al
00001DB9  0000              add [eax],al
00001DBB  0000              add [eax],al
00001DBD  0000              add [eax],al
00001DBF  0000              add [eax],al
00001DC1  0000              add [eax],al
00001DC3  0000              add [eax],al
00001DC5  0000              add [eax],al
00001DC7  0000              add [eax],al
00001DC9  0000              add [eax],al
00001DCB  0000              add [eax],al
00001DCD  0000              add [eax],al
00001DCF  0000              add [eax],al
00001DD1  0000              add [eax],al
00001DD3  0000              add [eax],al
00001DD5  0000              add [eax],al
00001DD7  0000              add [eax],al
00001DD9  0000              add [eax],al
00001DDB  0000              add [eax],al
00001DDD  0000              add [eax],al
00001DDF  0000              add [eax],al
00001DE1  0000              add [eax],al
00001DE3  0000              add [eax],al
00001DE5  0000              add [eax],al
00001DE7  0000              add [eax],al
00001DE9  0000              add [eax],al
00001DEB  0000              add [eax],al
00001DED  0000              add [eax],al
00001DEF  0000              add [eax],al
00001DF1  0000              add [eax],al
00001DF3  0000              add [eax],al
00001DF5  0000              add [eax],al
00001DF7  0000              add [eax],al
00001DF9  0000              add [eax],al
00001DFB  0000              add [eax],al
00001DFD  0000              add [eax],al
00001DFF  0000              add [eax],al
00001E01  0000              add [eax],al
00001E03  0000              add [eax],al
00001E05  0000              add [eax],al
00001E07  0000              add [eax],al
00001E09  0000              add [eax],al
00001E0B  0000              add [eax],al
00001E0D  0000              add [eax],al
00001E0F  0000              add [eax],al
00001E11  0000              add [eax],al
00001E13  0000              add [eax],al
00001E15  0000              add [eax],al
00001E17  0000              add [eax],al
00001E19  0000              add [eax],al
00001E1B  0000              add [eax],al
00001E1D  0000              add [eax],al
00001E1F  0000              add [eax],al
00001E21  0000              add [eax],al
00001E23  0000              add [eax],al
00001E25  0000              add [eax],al
00001E27  0000              add [eax],al
00001E29  0000              add [eax],al
00001E2B  0000              add [eax],al
00001E2D  0000              add [eax],al
00001E2F  0000              add [eax],al
00001E31  0000              add [eax],al
00001E33  0000              add [eax],al
00001E35  0000              add [eax],al
00001E37  0000              add [eax],al
00001E39  0000              add [eax],al
00001E3B  0000              add [eax],al
00001E3D  0000              add [eax],al
00001E3F  0000              add [eax],al
00001E41  0000              add [eax],al
00001E43  0000              add [eax],al
00001E45  0000              add [eax],al
00001E47  0000              add [eax],al
00001E49  0000              add [eax],al
00001E4B  0000              add [eax],al
00001E4D  0000              add [eax],al
00001E4F  0000              add [eax],al
00001E51  0000              add [eax],al
00001E53  0000              add [eax],al
00001E55  0000              add [eax],al
00001E57  0000              add [eax],al
00001E59  0000              add [eax],al
00001E5B  0000              add [eax],al
00001E5D  0000              add [eax],al
00001E5F  0000              add [eax],al
00001E61  0000              add [eax],al
00001E63  0000              add [eax],al
00001E65  0000              add [eax],al
00001E67  0000              add [eax],al
00001E69  0000              add [eax],al
00001E6B  0000              add [eax],al
00001E6D  0000              add [eax],al
00001E6F  0000              add [eax],al
00001E71  0000              add [eax],al
00001E73  0000              add [eax],al
00001E75  0000              add [eax],al
00001E77  0000              add [eax],al
00001E79  0000              add [eax],al
00001E7B  0000              add [eax],al
00001E7D  0000              add [eax],al
00001E7F  0000              add [eax],al
00001E81  0000              add [eax],al
00001E83  0000              add [eax],al
00001E85  0000              add [eax],al
00001E87  0000              add [eax],al
00001E89  0000              add [eax],al
00001E8B  0000              add [eax],al
00001E8D  0000              add [eax],al
00001E8F  0000              add [eax],al
00001E91  0000              add [eax],al
00001E93  0000              add [eax],al
00001E95  0000              add [eax],al
00001E97  0000              add [eax],al
00001E99  0000              add [eax],al
00001E9B  0000              add [eax],al
00001E9D  0000              add [eax],al
00001E9F  0000              add [eax],al
00001EA1  0000              add [eax],al
00001EA3  0000              add [eax],al
00001EA5  0000              add [eax],al
00001EA7  0000              add [eax],al
00001EA9  0000              add [eax],al
00001EAB  0000              add [eax],al
00001EAD  0000              add [eax],al
00001EAF  0000              add [eax],al
00001EB1  0000              add [eax],al
00001EB3  0000              add [eax],al
00001EB5  0000              add [eax],al
00001EB7  0000              add [eax],al
00001EB9  0000              add [eax],al
00001EBB  0000              add [eax],al
00001EBD  0000              add [eax],al
00001EBF  0000              add [eax],al
00001EC1  0000              add [eax],al
00001EC3  0000              add [eax],al
00001EC5  0000              add [eax],al
00001EC7  0000              add [eax],al
00001EC9  0000              add [eax],al
00001ECB  0000              add [eax],al
00001ECD  0000              add [eax],al
00001ECF  0000              add [eax],al
00001ED1  0000              add [eax],al
00001ED3  0000              add [eax],al
00001ED5  0000              add [eax],al
00001ED7  0000              add [eax],al
00001ED9  0000              add [eax],al
00001EDB  0000              add [eax],al
00001EDD  0000              add [eax],al
00001EDF  0000              add [eax],al
00001EE1  0000              add [eax],al
00001EE3  0000              add [eax],al
00001EE5  0000              add [eax],al
00001EE7  0000              add [eax],al
00001EE9  0000              add [eax],al
00001EEB  0000              add [eax],al
00001EED  0000              add [eax],al
00001EEF  0000              add [eax],al
00001EF1  0000              add [eax],al
00001EF3  0000              add [eax],al
00001EF5  0000              add [eax],al
00001EF7  0000              add [eax],al
00001EF9  0000              add [eax],al
00001EFB  0000              add [eax],al
00001EFD  0000              add [eax],al
00001EFF  0000              add [eax],al
00001F01  0000              add [eax],al
00001F03  0000              add [eax],al
00001F05  0000              add [eax],al
00001F07  0000              add [eax],al
00001F09  0000              add [eax],al
00001F0B  0000              add [eax],al
00001F0D  0000              add [eax],al
00001F0F  0000              add [eax],al
00001F11  0000              add [eax],al
00001F13  0000              add [eax],al
00001F15  0000              add [eax],al
00001F17  0000              add [eax],al
00001F19  0000              add [eax],al
00001F1B  0000              add [eax],al
00001F1D  0000              add [eax],al
00001F1F  0000              add [eax],al
00001F21  0000              add [eax],al
00001F23  0000              add [eax],al
00001F25  0000              add [eax],al
00001F27  0000              add [eax],al
00001F29  0000              add [eax],al
00001F2B  0000              add [eax],al
00001F2D  0000              add [eax],al
00001F2F  0000              add [eax],al
00001F31  0000              add [eax],al
00001F33  0000              add [eax],al
00001F35  0000              add [eax],al
00001F37  0000              add [eax],al
00001F39  0000              add [eax],al
00001F3B  0000              add [eax],al
00001F3D  0000              add [eax],al
00001F3F  0000              add [eax],al
00001F41  0000              add [eax],al
00001F43  0000              add [eax],al
00001F45  0000              add [eax],al
00001F47  0000              add [eax],al
00001F49  0000              add [eax],al
00001F4B  0000              add [eax],al
00001F4D  0000              add [eax],al
00001F4F  0000              add [eax],al
00001F51  0000              add [eax],al
00001F53  0000              add [eax],al
00001F55  0000              add [eax],al
00001F57  0000              add [eax],al
00001F59  0000              add [eax],al
00001F5B  0000              add [eax],al
00001F5D  0000              add [eax],al
00001F5F  0000              add [eax],al
00001F61  0000              add [eax],al
00001F63  0000              add [eax],al
00001F65  0000              add [eax],al
00001F67  0000              add [eax],al
00001F69  0000              add [eax],al
00001F6B  0000              add [eax],al
00001F6D  0000              add [eax],al
00001F6F  0000              add [eax],al
00001F71  0000              add [eax],al
00001F73  0000              add [eax],al
00001F75  0000              add [eax],al
00001F77  0000              add [eax],al
00001F79  0000              add [eax],al
00001F7B  0000              add [eax],al
00001F7D  0000              add [eax],al
00001F7F  0000              add [eax],al
00001F81  0000              add [eax],al
00001F83  0000              add [eax],al
00001F85  0000              add [eax],al
00001F87  0000              add [eax],al
00001F89  0000              add [eax],al
00001F8B  0000              add [eax],al
00001F8D  0000              add [eax],al
00001F8F  0000              add [eax],al
00001F91  0000              add [eax],al
00001F93  0000              add [eax],al
00001F95  0000              add [eax],al
00001F97  0000              add [eax],al
00001F99  0000              add [eax],al
00001F9B  0000              add [eax],al
00001F9D  0000              add [eax],al
00001F9F  0000              add [eax],al
00001FA1  0000              add [eax],al
00001FA3  0000              add [eax],al
00001FA5  0000              add [eax],al
00001FA7  0000              add [eax],al
00001FA9  0000              add [eax],al
00001FAB  0000              add [eax],al
00001FAD  0000              add [eax],al
00001FAF  0000              add [eax],al
00001FB1  0000              add [eax],al
00001FB3  0000              add [eax],al
00001FB5  0000              add [eax],al
00001FB7  0000              add [eax],al
00001FB9  0000              add [eax],al
00001FBB  0000              add [eax],al
00001FBD  0000              add [eax],al
00001FBF  0000              add [eax],al
00001FC1  0000              add [eax],al
00001FC3  0000              add [eax],al
00001FC5  0000              add [eax],al
00001FC7  0000              add [eax],al
00001FC9  0000              add [eax],al
00001FCB  0000              add [eax],al
00001FCD  0000              add [eax],al
00001FCF  0000              add [eax],al
00001FD1  0000              add [eax],al
00001FD3  0000              add [eax],al
00001FD5  0000              add [eax],al
00001FD7  0000              add [eax],al
00001FD9  0000              add [eax],al
00001FDB  0000              add [eax],al
00001FDD  0000              add [eax],al
00001FDF  0000              add [eax],al
00001FE1  0000              add [eax],al
00001FE3  0000              add [eax],al
00001FE5  0000              add [eax],al
00001FE7  0000              add [eax],al
00001FE9  0000              add [eax],al
00001FEB  0000              add [eax],al
00001FED  0000              add [eax],al
00001FEF  0000              add [eax],al
00001FF1  0000              add [eax],al
00001FF3  0000              add [eax],al
00001FF5  0000              add [eax],al
00001FF7  0000              add [eax],al
00001FF9  0000              add [eax],al
00001FFB  0000              add [eax],al
00001FFD  0000              add [eax],al
00001FFF  002578004469      add [dword 0x69440078],ah
00002005  7669              jna 0x2070
00002007  7369              jnc 0x2072
00002009  6F                outsd
0000200A  6E                outsb
0000200B  204279            and [edx+0x79],al
0000200E  205A65            and [edx+0x65],bl
00002011  726F              jc 0x2082
00002013  00446562          add [ebp+0x62],al
00002017  7567              jnz 0x2080
00002019  004E6F            add [esi+0x6f],cl
0000201C  6E                outsb
0000201D  204D61            and [ebp+0x61],cl
00002020  736B              jnc 0x208d
00002022  61                popa
00002023  626C6520          bound ebp,[ebp+0x20]
00002027  49                dec ecx
00002028  6E                outsb
00002029  7465              jz 0x2090
0000202B  7272              jc 0x209f
0000202D  7570              jnz 0x209f
0000202F  7400              jz 0x2031
00002031  42                inc edx
00002032  7265              jc 0x2099
00002034  61                popa
00002035  6B706F69          imul esi,[eax+0x6f],byte +0x69
00002039  6E                outsb
0000203A  7400              jz 0x203c
0000203C  49                dec ecx
0000203D  6E                outsb
0000203E  746F              jz 0x20af
00002040  20446574          and [ebp+0x74],al
00002044  6563746564        arpl [gs:ebp+0x64],si
00002049  204F76            and [edi+0x76],cl
0000204C  657266            gs jc 0x20b5
0000204F  6C                insb
00002050  6F                outsd
00002051  7700              ja 0x2053
00002053  4F                dec edi
00002054  7574              jnz 0x20ca
00002056  206F66            and [edi+0x66],ch
00002059  20426F            and [edx+0x6f],al
0000205C  756E              jnz 0x20cc
0000205E  647300            fs jnc 0x2061
00002061  49                dec ecx
00002062  6E                outsb
00002063  7661              jna 0x20c6
00002065  6C                insb
00002066  6964204F70636F64  imul esp,[eax+0x4f],dword 0x646f6370
0000206E  65004E6F          add [gs:esi+0x6f],cl
00002072  20436F            and [ebx+0x6f],al
00002075  7072              jo 0x20e9
00002077  6F                outsd
00002078  636573            arpl [ebp+0x73],sp
0000207B  736F              jnc 0x20ec
0000207D  7200              jc 0x207f
0000207F  44                inc esp
00002080  6F                outsd
00002081  7562              jnz 0x20e5
00002083  6C                insb
00002084  65204661          and [gs:esi+0x61],al
00002088  756C              jnz 0x20f6
0000208A  7400              jz 0x208c
0000208C  43                inc ebx
0000208D  6F                outsd
0000208E  7072              jo 0x2102
00002090  6F                outsd
00002091  636573            arpl [ebp+0x73],sp
00002094  736F              jnc 0x2105
00002096  7220              jc 0x20b8
00002098  53                push ebx
00002099  65676D            gs a16 insd
0000209C  656E              gs outsb
0000209E  7420              jz 0x20c0
000020A0  4F                dec edi
000020A1  7665              jna 0x2108
000020A3  7272              jc 0x2117
000020A5  756E              jnz 0x2115
000020A7  004261            add [edx+0x61],al
000020AA  6420545353        and [fs:ebx+edx*2+0x53],dl
000020AF  005365            add [ebx+0x65],dl
000020B2  676D              a16 insd
000020B4  656E              gs outsb
000020B6  7420              jz 0x20d8
000020B8  4E                dec esi
000020B9  6F                outsd
000020BA  7420              jz 0x20dc
000020BC  50                push eax
000020BD  7265              jc 0x2124
000020BF  7365              jnc 0x2126
000020C1  6E                outsb
000020C2  7400              jz 0x20c4
000020C4  53                push ebx
000020C5  7461              jz 0x2128
000020C7  636B20            arpl [ebx+0x20],bp
000020CA  46                inc esi
000020CB  61                popa
000020CC  756C              jnz 0x213a
000020CE  7400              jz 0x20d0
000020D0  47                inc edi
000020D1  656E              gs outsb
000020D3  657261            gs jc 0x2137
000020D6  6C                insb
000020D7  205072            and [eax+0x72],dl
000020DA  6F                outsd
000020DB  7465              jz 0x2142
000020DD  6374696F          arpl [ecx+ebp*2+0x6f],si
000020E1  6E                outsb
000020E2  204661            and [esi+0x61],al
000020E5  756C              jnz 0x2153
000020E7  7400              jz 0x20e9
000020E9  50                push eax
000020EA  61                popa
000020EB  6765204661        and [gs:bp+0x61],al
000020F0  756C              jnz 0x215e
000020F2  7400              jz 0x20f4
000020F4  55                push ebp
000020F5  6E                outsb
000020F6  6B6E6F77          imul ebp,[esi+0x6f],byte +0x77
000020FA  6E                outsb
000020FB  20496E            and [ecx+0x6e],cl
000020FE  7465              jz 0x2165
00002100  7272              jc 0x2174
00002102  7570              jnz 0x2174
00002104  7400              jz 0x2106
00002106  43                inc ebx
00002107  6F                outsd
00002108  7072              jo 0x217c
0000210A  6F                outsd
0000210B  636573            arpl [ebp+0x73],sp
0000210E  736F              jnc 0x217f
00002110  7220              jc 0x2132
00002112  46                inc esi
00002113  61                popa
00002114  756C              jnz 0x2182
00002116  7400              jz 0x2118
00002118  41                inc ecx
00002119  6C                insb
0000211A  69676E6D656E74    imul esp,[edi+0x6e],dword 0x746e656d
00002121  204368            and [ebx+0x68],al
00002124  65636B00          arpl [gs:ebx+0x0],bp
00002128  4D                dec ebp
00002129  61                popa
0000212A  636869            arpl [eax+0x69],bp
0000212D  6E                outsb
0000212E  65204368          and [gs:ebx+0x68],al
00002132  65636B00          arpl [gs:ebx+0x0],bp
00002136  52                push edx
00002137  657365            gs jnc 0x219f
0000213A  7276              jc 0x21b2
0000213C  65640020          add [fs:eax],ah
00002140  45                inc ebp
00002141  7863              js 0x21a6
00002143  657074            gs jo 0x21ba
00002146  696F6E2E205379    imul ebp,[edi+0x6e],dword 0x7953202e
0000214D  7374              jnc 0x21c3
0000214F  656D              gs insd
00002151  204861            and [eax+0x61],cl
00002154  6C                insb
00002155  7465              jz 0x21bc
00002157  64210A            and [fs:edx],ecx
0000215A  0000              add [eax],al
0000215C  55                push ebp
0000215D  6E                outsb
0000215E  6B6E6F77          imul ebp,[esi+0x6f],byte +0x77
00002162  6E                outsb
00002163  20666F            and [esi+0x6f],ah
00002166  726D              jc 0x21d5
00002168  61                popa
00002169  7420              jz 0x218b
0000216B  7479              jz 0x21e6
0000216D  7065              jo 0x21d4
0000216F  205C2525          and [ebp+0x25],bl
00002173  6300              arpl [eax],ax
00002175  0000              add [eax],al
00002177  005765            add [edi+0x65],dl
0000217A  6C                insb
0000217B  636F6D            arpl [edi+0x6d],bp
0000217E  6520746F20        and [gs:edi+ebp*2+0x20],dh
00002183  6D                insd
00002184  7920              jns 0x21a6
00002186  6F                outsd
00002187  7065              jo 0x21ee
00002189  7261              jc 0x21ec
0000218B  7469              jz 0x21f6
0000218D  6E                outsb
0000218E  67207379          and [bp+di+0x79],dh
00002192  7374              jnc 0x2208
00002194  656D              gs insd
00002196  2100              and [eax],eax
00002198  47                inc edi
00002199  43                inc ebx
0000219A  43                inc ebx
0000219B  3A20              cmp ah,[eax]
0000219D  284D69            sub [ebp+0x69],cl
000021A0  6E                outsb
000021A1  47                inc edi
000021A2  57                push edi
000021A3  2E6F              cs outsd
000021A5  7267              jc 0x220e
000021A7  204743            and [edi+0x43],al
000021AA  43                inc ebx
000021AB  2D362E332E        sub eax,0x2e332e36
000021B0  302D31292036      xor [dword 0x36202931],ch
000021B6  2E332E            xor ebp,[cs:esi]
000021B9  3000              xor [eax],al
000021BB  004743            add [edi+0x43],al
000021BE  43                inc ebx
000021BF  3A20              cmp ah,[eax]
000021C1  284D69            sub [ebp+0x69],cl
000021C4  6E                outsb
000021C5  47                inc edi
000021C6  57                push edi
000021C7  2E6F              cs outsd
000021C9  7267              jc 0x2232
000021CB  204743            and [edi+0x43],al
000021CE  43                inc ebx
000021CF  2D362E332E        sub eax,0x2e332e36
000021D4  302D31292036      xor [dword 0x36202931],ch
000021DA  2E332E            xor ebp,[cs:esi]
000021DD  3000              xor [eax],al
000021DF  004743            add [edi+0x43],al
000021E2  43                inc ebx
000021E3  3A20              cmp ah,[eax]
000021E5  284D69            sub [ebp+0x69],cl
000021E8  6E                outsb
000021E9  47                inc edi
000021EA  57                push edi
000021EB  2E6F              cs outsd
000021ED  7267              jc 0x2256
000021EF  204743            and [edi+0x43],al
000021F2  43                inc ebx
000021F3  2D362E332E        sub eax,0x2e332e36
000021F8  302D31292036      xor [dword 0x36202931],ch
000021FE  2E332E            xor ebp,[cs:esi]
00002201  3000              xor [eax],al
00002203  004743            add [edi+0x43],al
00002206  43                inc ebx
00002207  3A20              cmp ah,[eax]
00002209  284D69            sub [ebp+0x69],cl
0000220C  6E                outsb
0000220D  47                inc edi
0000220E  57                push edi
0000220F  2E6F              cs outsd
00002211  7267              jc 0x227a
00002213  204743            and [edi+0x43],al
00002216  43                inc ebx
00002217  2D362E332E        sub eax,0x2e332e36
0000221C  302D31292036      xor [dword 0x36202931],ch
00002222  2E332E            xor ebp,[cs:esi]
00002225  3000              xor [eax],al
00002227  004743            add [edi+0x43],al
0000222A  43                inc ebx
0000222B  3A20              cmp ah,[eax]
0000222D  284D69            sub [ebp+0x69],cl
00002230  6E                outsb
00002231  47                inc edi
00002232  57                push edi
00002233  2E6F              cs outsd
00002235  7267              jc 0x229e
00002237  204743            and [edi+0x43],al
0000223A  43                inc ebx
0000223B  2D362E332E        sub eax,0x2e332e36
00002240  302D31292036      xor [dword 0x36202931],ch
00002246  2E332E            xor ebp,[cs:esi]
00002249  3000              xor [eax],al
0000224B  004743            add [edi+0x43],al
0000224E  43                inc ebx
0000224F  3A20              cmp ah,[eax]
00002251  284D69            sub [ebp+0x69],cl
00002254  6E                outsb
00002255  47                inc edi
00002256  57                push edi
00002257  2E6F              cs outsd
00002259  7267              jc 0x22c2
0000225B  204743            and [edi+0x43],al
0000225E  43                inc ebx
0000225F  2D362E332E        sub eax,0x2e332e36
00002264  302D31292036      xor [dword 0x36202931],ch
0000226A  2E332E            xor ebp,[cs:esi]
0000226D  3000              xor [eax],al
0000226F  004743            add [edi+0x43],al
00002272  43                inc ebx
00002273  3A20              cmp ah,[eax]
00002275  284D69            sub [ebp+0x69],cl
00002278  6E                outsb
00002279  47                inc edi
0000227A  57                push edi
0000227B  2E6F              cs outsd
0000227D  7267              jc 0x22e6
0000227F  204743            and [edi+0x43],al
00002282  43                inc ebx
00002283  2D362E332E        sub eax,0x2e332e36
00002288  302D31292036      xor [dword 0x36202931],ch
0000228E  2E332E            xor ebp,[cs:esi]
00002291  3000              xor [eax],al
00002293  004743            add [edi+0x43],al
00002296  43                inc ebx
00002297  3A20              cmp ah,[eax]
00002299  284D69            sub [ebp+0x69],cl
0000229C  6E                outsb
0000229D  47                inc edi
0000229E  57                push edi
0000229F  2E6F              cs outsd
000022A1  7267              jc 0x230a
000022A3  204743            and [edi+0x43],al
000022A6  43                inc ebx
000022A7  2D362E332E        sub eax,0x2e332e36
000022AC  302D31292036      xor [dword 0x36202931],ch
000022B2  2E332E            xor ebp,[cs:esi]
000022B5  3000              xor [eax],al
000022B7  0000              add [eax],al
000022B9  0000              add [eax],al
000022BB  0000              add [eax],al
000022BD  0000              add [eax],al
000022BF  0000              add [eax],al
000022C1  0000              add [eax],al
000022C3  0000              add [eax],al
000022C5  0000              add [eax],al
000022C7  0000              add [eax],al
000022C9  0000              add [eax],al
000022CB  0000              add [eax],al
000022CD  0000              add [eax],al
000022CF  0000              add [eax],al
000022D1  0000              add [eax],al
000022D3  0000              add [eax],al
000022D5  0000              add [eax],al
000022D7  0000              add [eax],al
000022D9  0000              add [eax],al
000022DB  0000              add [eax],al
000022DD  0000              add [eax],al
000022DF  0000              add [eax],al
000022E1  0000              add [eax],al
000022E3  0000              add [eax],al
000022E5  0000              add [eax],al
000022E7  0000              add [eax],al
000022E9  0000              add [eax],al
000022EB  0000              add [eax],al
000022ED  0000              add [eax],al
000022EF  0000              add [eax],al
000022F1  0000              add [eax],al
000022F3  0000              add [eax],al
000022F5  0000              add [eax],al
000022F7  0000              add [eax],al
000022F9  0000              add [eax],al
000022FB  0000              add [eax],al
000022FD  0000              add [eax],al
000022FF  0000              add [eax],al
00002301  0000              add [eax],al
00002303  0000              add [eax],al
00002305  0000              add [eax],al
00002307  0000              add [eax],al
00002309  0000              add [eax],al
0000230B  0000              add [eax],al
0000230D  0000              add [eax],al
0000230F  0000              add [eax],al
00002311  0000              add [eax],al
00002313  0000              add [eax],al
00002315  0000              add [eax],al
00002317  0000              add [eax],al
00002319  0000              add [eax],al
0000231B  0000              add [eax],al
0000231D  0000              add [eax],al
0000231F  0000              add [eax],al
00002321  0000              add [eax],al
00002323  0000              add [eax],al
00002325  0000              add [eax],al
00002327  0000              add [eax],al
00002329  0000              add [eax],al
0000232B  0000              add [eax],al
0000232D  0000              add [eax],al
0000232F  0000              add [eax],al
00002331  0000              add [eax],al
00002333  0000              add [eax],al
00002335  0000              add [eax],al
00002337  0000              add [eax],al
00002339  0000              add [eax],al
0000233B  0000              add [eax],al
0000233D  0000              add [eax],al
0000233F  0000              add [eax],al
00002341  0000              add [eax],al
00002343  0000              add [eax],al
00002345  0000              add [eax],al
00002347  0000              add [eax],al
00002349  0000              add [eax],al
0000234B  0000              add [eax],al
0000234D  0000              add [eax],al
0000234F  0000              add [eax],al
00002351  0000              add [eax],al
00002353  0000              add [eax],al
00002355  0000              add [eax],al
00002357  0000              add [eax],al
00002359  0000              add [eax],al
0000235B  0000              add [eax],al
0000235D  0000              add [eax],al
0000235F  0000              add [eax],al
00002361  0000              add [eax],al
00002363  0000              add [eax],al
00002365  0000              add [eax],al
00002367  0000              add [eax],al
00002369  0000              add [eax],al
0000236B  0000              add [eax],al
0000236D  0000              add [eax],al
0000236F  0000              add [eax],al
00002371  0000              add [eax],al
00002373  0000              add [eax],al
00002375  0000              add [eax],al
00002377  0000              add [eax],al
00002379  0000              add [eax],al
0000237B  0000              add [eax],al
0000237D  0000              add [eax],al
0000237F  0000              add [eax],al
00002381  0000              add [eax],al
00002383  0000              add [eax],al
00002385  0000              add [eax],al
00002387  0000              add [eax],al
00002389  0000              add [eax],al
0000238B  0000              add [eax],al
0000238D  0000              add [eax],al
0000238F  0000              add [eax],al
00002391  0000              add [eax],al
00002393  0000              add [eax],al
00002395  0000              add [eax],al
00002397  0000              add [eax],al
00002399  0000              add [eax],al
0000239B  0000              add [eax],al
0000239D  0000              add [eax],al
0000239F  0000              add [eax],al
000023A1  0000              add [eax],al
000023A3  0000              add [eax],al
000023A5  0000              add [eax],al
000023A7  0000              add [eax],al
000023A9  0000              add [eax],al
000023AB  0000              add [eax],al
000023AD  0000              add [eax],al
000023AF  0000              add [eax],al
000023B1  0000              add [eax],al
000023B3  0000              add [eax],al
000023B5  0000              add [eax],al
000023B7  0000              add [eax],al
000023B9  0000              add [eax],al
000023BB  0000              add [eax],al
000023BD  0000              add [eax],al
000023BF  0000              add [eax],al
000023C1  0000              add [eax],al
000023C3  0000              add [eax],al
000023C5  0000              add [eax],al
000023C7  0000              add [eax],al
000023C9  0000              add [eax],al
000023CB  0000              add [eax],al
000023CD  0000              add [eax],al
000023CF  0000              add [eax],al
000023D1  0000              add [eax],al
000023D3  0000              add [eax],al
000023D5  0000              add [eax],al
000023D7  0000              add [eax],al
000023D9  0000              add [eax],al
000023DB  0000              add [eax],al
000023DD  0000              add [eax],al
000023DF  0000              add [eax],al
000023E1  0000              add [eax],al
000023E3  0000              add [eax],al
000023E5  0000              add [eax],al
000023E7  0000              add [eax],al
000023E9  0000              add [eax],al
000023EB  0000              add [eax],al
000023ED  0000              add [eax],al
000023EF  0000              add [eax],al
000023F1  0000              add [eax],al
000023F3  0000              add [eax],al
000023F5  0000              add [eax],al
000023F7  0000              add [eax],al
000023F9  0000              add [eax],al
000023FB  0000              add [eax],al
000023FD  0000              add [eax],al
000023FF  0000              add [eax],al
00002401  0000              add [eax],al
00002403  0000              add [eax],al
00002405  0000              add [eax],al
00002407  0000              add [eax],al
00002409  0000              add [eax],al
0000240B  0000              add [eax],al
0000240D  0000              add [eax],al
0000240F  0000              add [eax],al
00002411  0000              add [eax],al
00002413  0000              add [eax],al
00002415  0000              add [eax],al
00002417  0000              add [eax],al
00002419  0000              add [eax],al
0000241B  0000              add [eax],al
0000241D  0000              add [eax],al
0000241F  0000              add [eax],al
00002421  0000              add [eax],al
00002423  0000              add [eax],al
00002425  0000              add [eax],al
00002427  0000              add [eax],al
00002429  0000              add [eax],al
0000242B  0000              add [eax],al
0000242D  0000              add [eax],al
0000242F  0000              add [eax],al
00002431  0000              add [eax],al
00002433  0000              add [eax],al
00002435  0000              add [eax],al
00002437  0000              add [eax],al
00002439  0000              add [eax],al
0000243B  0000              add [eax],al
0000243D  0000              add [eax],al
0000243F  0000              add [eax],al
00002441  0000              add [eax],al
00002443  0000              add [eax],al
00002445  0000              add [eax],al
00002447  0000              add [eax],al
00002449  0000              add [eax],al
0000244B  0000              add [eax],al
0000244D  0000              add [eax],al
0000244F  0000              add [eax],al
00002451  0000              add [eax],al
00002453  0000              add [eax],al
00002455  0000              add [eax],al
00002457  0000              add [eax],al
00002459  0000              add [eax],al
0000245B  0000              add [eax],al
0000245D  0000              add [eax],al
0000245F  0000              add [eax],al
00002461  0000              add [eax],al
00002463  0000              add [eax],al
00002465  0000              add [eax],al
00002467  0000              add [eax],al
00002469  0000              add [eax],al
0000246B  0000              add [eax],al
0000246D  0000              add [eax],al
0000246F  0000              add [eax],al
00002471  0000              add [eax],al
00002473  0000              add [eax],al
00002475  0000              add [eax],al
00002477  0000              add [eax],al
00002479  0000              add [eax],al
0000247B  0000              add [eax],al
0000247D  0000              add [eax],al
0000247F  0000              add [eax],al
00002481  0000              add [eax],al
00002483  0000              add [eax],al
00002485  0000              add [eax],al
00002487  0000              add [eax],al
00002489  0000              add [eax],al
0000248B  0000              add [eax],al
0000248D  0000              add [eax],al
0000248F  0000              add [eax],al
00002491  0000              add [eax],al
00002493  0000              add [eax],al
00002495  0000              add [eax],al
00002497  0000              add [eax],al
00002499  0000              add [eax],al
0000249B  0000              add [eax],al
0000249D  0000              add [eax],al
0000249F  0000              add [eax],al
000024A1  0000              add [eax],al
000024A3  0000              add [eax],al
000024A5  0000              add [eax],al
000024A7  0000              add [eax],al
000024A9  0000              add [eax],al
000024AB  0000              add [eax],al
000024AD  0000              add [eax],al
000024AF  0000              add [eax],al
000024B1  0000              add [eax],al
000024B3  0000              add [eax],al
000024B5  0000              add [eax],al
000024B7  0000              add [eax],al
000024B9  0000              add [eax],al
000024BB  0000              add [eax],al
000024BD  0000              add [eax],al
000024BF  0000              add [eax],al
000024C1  0000              add [eax],al
000024C3  0000              add [eax],al
000024C5  0000              add [eax],al
000024C7  0000              add [eax],al
000024C9  0000              add [eax],al
000024CB  0000              add [eax],al
000024CD  0000              add [eax],al
000024CF  0000              add [eax],al
000024D1  0000              add [eax],al
000024D3  0000              add [eax],al
000024D5  0000              add [eax],al
000024D7  0000              add [eax],al
000024D9  0000              add [eax],al
000024DB  0000              add [eax],al
000024DD  0000              add [eax],al
000024DF  0000              add [eax],al
000024E1  0000              add [eax],al
000024E3  0000              add [eax],al
000024E5  0000              add [eax],al
000024E7  0000              add [eax],al
000024E9  0000              add [eax],al
000024EB  0000              add [eax],al
000024ED  0000              add [eax],al
000024EF  0000              add [eax],al
000024F1  0000              add [eax],al
000024F3  0000              add [eax],al
000024F5  0000              add [eax],al
000024F7  0000              add [eax],al
000024F9  0000              add [eax],al
000024FB  0000              add [eax],al
000024FD  0000              add [eax],al
000024FF  0000              add [eax],al
00002501  0000              add [eax],al
00002503  0000              add [eax],al
00002505  0000              add [eax],al
00002507  0000              add [eax],al
00002509  0000              add [eax],al
0000250B  0000              add [eax],al
0000250D  0000              add [eax],al
0000250F  0000              add [eax],al
00002511  0000              add [eax],al
00002513  0000              add [eax],al
00002515  0000              add [eax],al
00002517  0000              add [eax],al
00002519  0000              add [eax],al
0000251B  0000              add [eax],al
0000251D  0000              add [eax],al
0000251F  0000              add [eax],al
00002521  0000              add [eax],al
00002523  0000              add [eax],al
00002525  0000              add [eax],al
00002527  0000              add [eax],al
00002529  0000              add [eax],al
0000252B  0000              add [eax],al
0000252D  0000              add [eax],al
0000252F  0000              add [eax],al
00002531  0000              add [eax],al
00002533  0000              add [eax],al
00002535  0000              add [eax],al
00002537  0000              add [eax],al
00002539  0000              add [eax],al
0000253B  0000              add [eax],al
0000253D  0000              add [eax],al
0000253F  0000              add [eax],al
00002541  0000              add [eax],al
00002543  0000              add [eax],al
00002545  0000              add [eax],al
00002547  0000              add [eax],al
00002549  0000              add [eax],al
0000254B  0000              add [eax],al
0000254D  0000              add [eax],al
0000254F  0000              add [eax],al
00002551  0000              add [eax],al
00002553  0000              add [eax],al
00002555  0000              add [eax],al
00002557  0000              add [eax],al
00002559  0000              add [eax],al
0000255B  0000              add [eax],al
0000255D  0000              add [eax],al
0000255F  0000              add [eax],al
00002561  0000              add [eax],al
00002563  0000              add [eax],al
00002565  0000              add [eax],al
00002567  0000              add [eax],al
00002569  0000              add [eax],al
0000256B  0000              add [eax],al
0000256D  0000              add [eax],al
0000256F  0000              add [eax],al
00002571  0000              add [eax],al
00002573  0000              add [eax],al
00002575  0000              add [eax],al
00002577  0000              add [eax],al
00002579  0000              add [eax],al
0000257B  0000              add [eax],al
0000257D  0000              add [eax],al
0000257F  0000              add [eax],al
00002581  0000              add [eax],al
00002583  0000              add [eax],al
00002585  0000              add [eax],al
00002587  0000              add [eax],al
00002589  0000              add [eax],al
0000258B  0000              add [eax],al
0000258D  0000              add [eax],al
0000258F  0000              add [eax],al
00002591  0000              add [eax],al
00002593  0000              add [eax],al
00002595  0000              add [eax],al
00002597  0000              add [eax],al
00002599  0000              add [eax],al
0000259B  0000              add [eax],al
0000259D  0000              add [eax],al
0000259F  0000              add [eax],al
000025A1  0000              add [eax],al
000025A3  0000              add [eax],al
000025A5  0000              add [eax],al
000025A7  0000              add [eax],al
000025A9  0000              add [eax],al
000025AB  0000              add [eax],al
000025AD  0000              add [eax],al
000025AF  0000              add [eax],al
000025B1  0000              add [eax],al
000025B3  0000              add [eax],al
000025B5  0000              add [eax],al
000025B7  0000              add [eax],al
000025B9  0000              add [eax],al
000025BB  0000              add [eax],al
000025BD  0000              add [eax],al
000025BF  0000              add [eax],al
000025C1  0000              add [eax],al
000025C3  0000              add [eax],al
000025C5  0000              add [eax],al
000025C7  0000              add [eax],al
000025C9  0000              add [eax],al
000025CB  0000              add [eax],al
000025CD  0000              add [eax],al
000025CF  0000              add [eax],al
000025D1  0000              add [eax],al
000025D3  0000              add [eax],al
000025D5  0000              add [eax],al
000025D7  0000              add [eax],al
000025D9  0000              add [eax],al
000025DB  0000              add [eax],al
000025DD  0000              add [eax],al
000025DF  0000              add [eax],al
000025E1  0000              add [eax],al
000025E3  0000              add [eax],al
000025E5  0000              add [eax],al
000025E7  0000              add [eax],al
000025E9  0000              add [eax],al
000025EB  0000              add [eax],al
000025ED  0000              add [eax],al
000025EF  0000              add [eax],al
000025F1  0000              add [eax],al
000025F3  0000              add [eax],al
000025F5  0000              add [eax],al
000025F7  0000              add [eax],al
000025F9  0000              add [eax],al
000025FB  0000              add [eax],al
000025FD  0000              add [eax],al
000025FF  0000              add [eax],al
00002601  0000              add [eax],al
00002603  0000              add [eax],al
00002605  0000              add [eax],al
00002607  0000              add [eax],al
00002609  0000              add [eax],al
0000260B  0000              add [eax],al
0000260D  0000              add [eax],al
0000260F  0000              add [eax],al
00002611  0000              add [eax],al
00002613  0000              add [eax],al
00002615  0000              add [eax],al
00002617  0000              add [eax],al
00002619  0000              add [eax],al
0000261B  0000              add [eax],al
0000261D  0000              add [eax],al
0000261F  0000              add [eax],al
00002621  0000              add [eax],al
00002623  0000              add [eax],al
00002625  0000              add [eax],al
00002627  0000              add [eax],al
00002629  0000              add [eax],al
0000262B  0000              add [eax],al
0000262D  0000              add [eax],al
0000262F  0000              add [eax],al
00002631  0000              add [eax],al
00002633  0000              add [eax],al
00002635  0000              add [eax],al
00002637  0000              add [eax],al
00002639  0000              add [eax],al
0000263B  0000              add [eax],al
0000263D  0000              add [eax],al
0000263F  0000              add [eax],al
00002641  0000              add [eax],al
00002643  0000              add [eax],al
00002645  0000              add [eax],al
00002647  0000              add [eax],al
00002649  0000              add [eax],al
0000264B  0000              add [eax],al
0000264D  0000              add [eax],al
0000264F  0000              add [eax],al
00002651  0000              add [eax],al
00002653  0000              add [eax],al
00002655  0000              add [eax],al
00002657  0000              add [eax],al
00002659  0000              add [eax],al
0000265B  0000              add [eax],al
0000265D  0000              add [eax],al
0000265F  0000              add [eax],al
00002661  0000              add [eax],al
00002663  0000              add [eax],al
00002665  0000              add [eax],al
00002667  0000              add [eax],al
00002669  0000              add [eax],al
0000266B  0000              add [eax],al
0000266D  0000              add [eax],al
0000266F  0000              add [eax],al
00002671  0000              add [eax],al
00002673  0000              add [eax],al
00002675  0000              add [eax],al
00002677  0000              add [eax],al
00002679  0000              add [eax],al
0000267B  0000              add [eax],al
0000267D  0000              add [eax],al
0000267F  0000              add [eax],al
00002681  0000              add [eax],al
00002683  0000              add [eax],al
00002685  0000              add [eax],al
00002687  0000              add [eax],al
00002689  0000              add [eax],al
0000268B  0000              add [eax],al
0000268D  0000              add [eax],al
0000268F  0000              add [eax],al
00002691  0000              add [eax],al
00002693  0000              add [eax],al
00002695  0000              add [eax],al
00002697  0000              add [eax],al
00002699  0000              add [eax],al
0000269B  0000              add [eax],al
0000269D  0000              add [eax],al
0000269F  0000              add [eax],al
000026A1  0000              add [eax],al
000026A3  0000              add [eax],al
000026A5  0000              add [eax],al
000026A7  0000              add [eax],al
000026A9  0000              add [eax],al
000026AB  0000              add [eax],al
000026AD  0000              add [eax],al
000026AF  0000              add [eax],al
000026B1  0000              add [eax],al
000026B3  0000              add [eax],al
000026B5  0000              add [eax],al
000026B7  0000              add [eax],al
000026B9  0000              add [eax],al
000026BB  0000              add [eax],al
000026BD  0000              add [eax],al
000026BF  0000              add [eax],al
000026C1  0000              add [eax],al
000026C3  0000              add [eax],al
000026C5  0000              add [eax],al
000026C7  0000              add [eax],al
000026C9  0000              add [eax],al
000026CB  0000              add [eax],al
000026CD  0000              add [eax],al
000026CF  0000              add [eax],al
000026D1  0000              add [eax],al
000026D3  0000              add [eax],al
000026D5  0000              add [eax],al
000026D7  0000              add [eax],al
000026D9  0000              add [eax],al
000026DB  0000              add [eax],al
000026DD  0000              add [eax],al
000026DF  0000              add [eax],al
000026E1  0000              add [eax],al
000026E3  0000              add [eax],al
000026E5  0000              add [eax],al
000026E7  0000              add [eax],al
000026E9  0000              add [eax],al
000026EB  0000              add [eax],al
000026ED  0000              add [eax],al
000026EF  0000              add [eax],al
000026F1  0000              add [eax],al
000026F3  0000              add [eax],al
000026F5  0000              add [eax],al
000026F7  0000              add [eax],al
000026F9  0000              add [eax],al
000026FB  0000              add [eax],al
000026FD  0000              add [eax],al
000026FF  0000              add [eax],al
00002701  0000              add [eax],al
00002703  0000              add [eax],al
00002705  0000              add [eax],al
00002707  0000              add [eax],al
00002709  0000              add [eax],al
0000270B  0000              add [eax],al
0000270D  0000              add [eax],al
0000270F  0000              add [eax],al
00002711  0000              add [eax],al
00002713  0000              add [eax],al
00002715  0000              add [eax],al
00002717  0000              add [eax],al
00002719  0000              add [eax],al
0000271B  0000              add [eax],al
0000271D  0000              add [eax],al
0000271F  0000              add [eax],al
00002721  0000              add [eax],al
00002723  0000              add [eax],al
00002725  0000              add [eax],al
00002727  0000              add [eax],al
00002729  0000              add [eax],al
0000272B  0000              add [eax],al
0000272D  0000              add [eax],al
0000272F  0000              add [eax],al
00002731  0000              add [eax],al
00002733  0000              add [eax],al
00002735  0000              add [eax],al
00002737  0000              add [eax],al
00002739  0000              add [eax],al
0000273B  0000              add [eax],al
0000273D  0000              add [eax],al
0000273F  0000              add [eax],al
00002741  0000              add [eax],al
00002743  0000              add [eax],al
00002745  0000              add [eax],al
00002747  0000              add [eax],al
00002749  0000              add [eax],al
0000274B  0000              add [eax],al
0000274D  0000              add [eax],al
0000274F  0000              add [eax],al
00002751  0000              add [eax],al
00002753  0000              add [eax],al
00002755  0000              add [eax],al
00002757  0000              add [eax],al
00002759  0000              add [eax],al
0000275B  0000              add [eax],al
0000275D  0000              add [eax],al
0000275F  0000              add [eax],al
00002761  0000              add [eax],al
00002763  0000              add [eax],al
00002765  0000              add [eax],al
00002767  0000              add [eax],al
00002769  0000              add [eax],al
0000276B  0000              add [eax],al
0000276D  0000              add [eax],al
0000276F  0000              add [eax],al
00002771  0000              add [eax],al
00002773  0000              add [eax],al
00002775  0000              add [eax],al
00002777  0000              add [eax],al
00002779  0000              add [eax],al
0000277B  0000              add [eax],al
0000277D  0000              add [eax],al
0000277F  0000              add [eax],al
00002781  0000              add [eax],al
00002783  0000              add [eax],al
00002785  0000              add [eax],al
00002787  0000              add [eax],al
00002789  0000              add [eax],al
0000278B  0000              add [eax],al
0000278D  0000              add [eax],al
0000278F  0000              add [eax],al
00002791  0000              add [eax],al
00002793  0000              add [eax],al
00002795  0000              add [eax],al
00002797  0000              add [eax],al
00002799  0000              add [eax],al
0000279B  0000              add [eax],al
0000279D  0000              add [eax],al
0000279F  0000              add [eax],al
000027A1  0000              add [eax],al
000027A3  0000              add [eax],al
000027A5  0000              add [eax],al
000027A7  0000              add [eax],al
000027A9  0000              add [eax],al
000027AB  0000              add [eax],al
000027AD  0000              add [eax],al
000027AF  0000              add [eax],al
000027B1  0000              add [eax],al
000027B3  0000              add [eax],al
000027B5  0000              add [eax],al
000027B7  0000              add [eax],al
000027B9  0000              add [eax],al
000027BB  0000              add [eax],al
000027BD  0000              add [eax],al
000027BF  0000              add [eax],al
000027C1  0000              add [eax],al
000027C3  0000              add [eax],al
000027C5  0000              add [eax],al
000027C7  0000              add [eax],al
000027C9  0000              add [eax],al
000027CB  0000              add [eax],al
000027CD  0000              add [eax],al
000027CF  0000              add [eax],al
000027D1  0000              add [eax],al
000027D3  0000              add [eax],al
000027D5  0000              add [eax],al
000027D7  0000              add [eax],al
000027D9  0000              add [eax],al
000027DB  0000              add [eax],al
000027DD  0000              add [eax],al
000027DF  0000              add [eax],al
000027E1  0000              add [eax],al
000027E3  0000              add [eax],al
000027E5  0000              add [eax],al
000027E7  0000              add [eax],al
000027E9  0000              add [eax],al
000027EB  0000              add [eax],al
000027ED  0000              add [eax],al
000027EF  0000              add [eax],al
000027F1  0000              add [eax],al
000027F3  0000              add [eax],al
000027F5  0000              add [eax],al
000027F7  0000              add [eax],al
000027F9  0000              add [eax],al
000027FB  0000              add [eax],al
000027FD  0000              add [eax],al
000027FF  0000              add [eax],al
00002801  0000              add [eax],al
00002803  0000              add [eax],al
00002805  0000              add [eax],al
00002807  0000              add [eax],al
00002809  0000              add [eax],al
0000280B  0000              add [eax],al
0000280D  0000              add [eax],al
0000280F  0000              add [eax],al
00002811  0000              add [eax],al
00002813  0000              add [eax],al
00002815  0000              add [eax],al
00002817  0000              add [eax],al
00002819  0000              add [eax],al
0000281B  0000              add [eax],al
0000281D  0000              add [eax],al
0000281F  0000              add [eax],al
00002821  0000              add [eax],al
00002823  0000              add [eax],al
00002825  0000              add [eax],al
00002827  0000              add [eax],al
00002829  0000              add [eax],al
0000282B  0000              add [eax],al
0000282D  0000              add [eax],al
0000282F  0000              add [eax],al
00002831  0000              add [eax],al
00002833  0000              add [eax],al
00002835  0000              add [eax],al
00002837  0000              add [eax],al
00002839  0000              add [eax],al
0000283B  0000              add [eax],al
0000283D  0000              add [eax],al
0000283F  0000              add [eax],al
00002841  0000              add [eax],al
00002843  0000              add [eax],al
00002845  0000              add [eax],al
00002847  0000              add [eax],al
00002849  0000              add [eax],al
0000284B  0000              add [eax],al
0000284D  0000              add [eax],al
0000284F  0000              add [eax],al
00002851  0000              add [eax],al
00002853  0000              add [eax],al
00002855  0000              add [eax],al
00002857  0000              add [eax],al
00002859  0000              add [eax],al
0000285B  0000              add [eax],al
0000285D  0000              add [eax],al
0000285F  0000              add [eax],al
00002861  0000              add [eax],al
00002863  0000              add [eax],al
00002865  0000              add [eax],al
00002867  0000              add [eax],al
00002869  0000              add [eax],al
0000286B  0000              add [eax],al
0000286D  0000              add [eax],al
0000286F  0000              add [eax],al
00002871  0000              add [eax],al
00002873  0000              add [eax],al
00002875  0000              add [eax],al
00002877  0000              add [eax],al
00002879  0000              add [eax],al
0000287B  0000              add [eax],al
0000287D  0000              add [eax],al
0000287F  0000              add [eax],al
00002881  0000              add [eax],al
00002883  0000              add [eax],al
00002885  0000              add [eax],al
00002887  0000              add [eax],al
00002889  0000              add [eax],al
0000288B  0000              add [eax],al
0000288D  0000              add [eax],al
0000288F  0000              add [eax],al
00002891  0000              add [eax],al
00002893  0000              add [eax],al
00002895  0000              add [eax],al
00002897  0000              add [eax],al
00002899  0000              add [eax],al
0000289B  0000              add [eax],al
0000289D  0000              add [eax],al
0000289F  0000              add [eax],al
000028A1  0000              add [eax],al
000028A3  0000              add [eax],al
000028A5  0000              add [eax],al
000028A7  0000              add [eax],al
000028A9  0000              add [eax],al
000028AB  0000              add [eax],al
000028AD  0000              add [eax],al
000028AF  0000              add [eax],al
000028B1  0000              add [eax],al
000028B3  0000              add [eax],al
000028B5  0000              add [eax],al
000028B7  0000              add [eax],al
000028B9  0000              add [eax],al
000028BB  0000              add [eax],al
000028BD  0000              add [eax],al
000028BF  0000              add [eax],al
000028C1  0000              add [eax],al
000028C3  0000              add [eax],al
000028C5  0000              add [eax],al
000028C7  0000              add [eax],al
000028C9  0000              add [eax],al
000028CB  0000              add [eax],al
000028CD  0000              add [eax],al
000028CF  0000              add [eax],al
000028D1  0000              add [eax],al
000028D3  0000              add [eax],al
000028D5  0000              add [eax],al
000028D7  0000              add [eax],al
000028D9  0000              add [eax],al
000028DB  0000              add [eax],al
000028DD  0000              add [eax],al
000028DF  0000              add [eax],al
000028E1  0000              add [eax],al
000028E3  0000              add [eax],al
000028E5  0000              add [eax],al
000028E7  0000              add [eax],al
000028E9  0000              add [eax],al
000028EB  0000              add [eax],al
000028ED  0000              add [eax],al
000028EF  0000              add [eax],al
000028F1  0000              add [eax],al
000028F3  0000              add [eax],al
000028F5  0000              add [eax],al
000028F7  0000              add [eax],al
000028F9  0000              add [eax],al
000028FB  0000              add [eax],al
000028FD  0000              add [eax],al
000028FF  0000              add [eax],al
00002901  0000              add [eax],al
00002903  0000              add [eax],al
00002905  0000              add [eax],al
00002907  0000              add [eax],al
00002909  0000              add [eax],al
0000290B  0000              add [eax],al
0000290D  0000              add [eax],al
0000290F  0000              add [eax],al
00002911  0000              add [eax],al
00002913  0000              add [eax],al
00002915  0000              add [eax],al
00002917  0000              add [eax],al
00002919  0000              add [eax],al
0000291B  0000              add [eax],al
0000291D  0000              add [eax],al
0000291F  0000              add [eax],al
00002921  0000              add [eax],al
00002923  0000              add [eax],al
00002925  0000              add [eax],al
00002927  0000              add [eax],al
00002929  0000              add [eax],al
0000292B  0000              add [eax],al
0000292D  0000              add [eax],al
0000292F  0000              add [eax],al
00002931  0000              add [eax],al
00002933  0000              add [eax],al
00002935  0000              add [eax],al
00002937  0000              add [eax],al
00002939  0000              add [eax],al
0000293B  0000              add [eax],al
0000293D  0000              add [eax],al
0000293F  0000              add [eax],al
00002941  0000              add [eax],al
00002943  0000              add [eax],al
00002945  0000              add [eax],al
00002947  0000              add [eax],al
00002949  0000              add [eax],al
0000294B  0000              add [eax],al
0000294D  0000              add [eax],al
0000294F  0000              add [eax],al
00002951  0000              add [eax],al
00002953  0000              add [eax],al
00002955  0000              add [eax],al
00002957  0000              add [eax],al
00002959  0000              add [eax],al
0000295B  0000              add [eax],al
0000295D  0000              add [eax],al
0000295F  0000              add [eax],al
00002961  0000              add [eax],al
00002963  0000              add [eax],al
00002965  0000              add [eax],al
00002967  0000              add [eax],al
00002969  0000              add [eax],al
0000296B  0000              add [eax],al
0000296D  0000              add [eax],al
0000296F  0000              add [eax],al
00002971  0000              add [eax],al
00002973  0000              add [eax],al
00002975  0000              add [eax],al
00002977  0000              add [eax],al
00002979  0000              add [eax],al
0000297B  0000              add [eax],al
0000297D  0000              add [eax],al
0000297F  0000              add [eax],al
00002981  0000              add [eax],al
00002983  0000              add [eax],al
00002985  0000              add [eax],al
00002987  0000              add [eax],al
00002989  0000              add [eax],al
0000298B  0000              add [eax],al
0000298D  0000              add [eax],al
0000298F  0000              add [eax],al
00002991  0000              add [eax],al
00002993  0000              add [eax],al
00002995  0000              add [eax],al
00002997  0000              add [eax],al
00002999  0000              add [eax],al
0000299B  0000              add [eax],al
0000299D  0000              add [eax],al
0000299F  0000              add [eax],al
000029A1  0000              add [eax],al
000029A3  0000              add [eax],al
000029A5  0000              add [eax],al
000029A7  0000              add [eax],al
000029A9  0000              add [eax],al
000029AB  0000              add [eax],al
000029AD  0000              add [eax],al
000029AF  0000              add [eax],al
000029B1  0000              add [eax],al
000029B3  0000              add [eax],al
000029B5  0000              add [eax],al
000029B7  0000              add [eax],al
000029B9  0000              add [eax],al
000029BB  0000              add [eax],al
000029BD  0000              add [eax],al
000029BF  0000              add [eax],al
000029C1  0000              add [eax],al
000029C3  0000              add [eax],al
000029C5  0000              add [eax],al
000029C7  0000              add [eax],al
000029C9  0000              add [eax],al
000029CB  0000              add [eax],al
000029CD  0000              add [eax],al
000029CF  0000              add [eax],al
000029D1  0000              add [eax],al
000029D3  0000              add [eax],al
000029D5  0000              add [eax],al
000029D7  0000              add [eax],al
000029D9  0000              add [eax],al
000029DB  0000              add [eax],al
000029DD  0000              add [eax],al
000029DF  0000              add [eax],al
000029E1  0000              add [eax],al
000029E3  0000              add [eax],al
000029E5  0000              add [eax],al
000029E7  0000              add [eax],al
000029E9  0000              add [eax],al
000029EB  0000              add [eax],al
000029ED  0000              add [eax],al
000029EF  0000              add [eax],al
000029F1  0000              add [eax],al
000029F3  0000              add [eax],al
000029F5  0000              add [eax],al
000029F7  0000              add [eax],al
000029F9  0000              add [eax],al
000029FB  0000              add [eax],al
000029FD  0000              add [eax],al
000029FF  0000              add [eax],al
00002A01  0000              add [eax],al
00002A03  0000              add [eax],al
00002A05  0000              add [eax],al
00002A07  0000              add [eax],al
00002A09  0000              add [eax],al
00002A0B  0000              add [eax],al
00002A0D  0000              add [eax],al
00002A0F  0000              add [eax],al
00002A11  0000              add [eax],al
00002A13  0000              add [eax],al
00002A15  0000              add [eax],al
00002A17  0000              add [eax],al
00002A19  0000              add [eax],al
00002A1B  0000              add [eax],al
00002A1D  0000              add [eax],al
00002A1F  0000              add [eax],al
00002A21  0000              add [eax],al
00002A23  0000              add [eax],al
00002A25  0000              add [eax],al
00002A27  0000              add [eax],al
00002A29  0000              add [eax],al
00002A2B  0000              add [eax],al
00002A2D  0000              add [eax],al
00002A2F  0000              add [eax],al
00002A31  0000              add [eax],al
00002A33  0000              add [eax],al
00002A35  0000              add [eax],al
00002A37  0000              add [eax],al
00002A39  0000              add [eax],al
00002A3B  0000              add [eax],al
00002A3D  0000              add [eax],al
00002A3F  0000              add [eax],al
00002A41  0000              add [eax],al
00002A43  0000              add [eax],al
00002A45  0000              add [eax],al
00002A47  0000              add [eax],al
00002A49  0000              add [eax],al
00002A4B  0000              add [eax],al
00002A4D  0000              add [eax],al
00002A4F  0000              add [eax],al
00002A51  0000              add [eax],al
00002A53  0000              add [eax],al
00002A55  0000              add [eax],al
00002A57  0000              add [eax],al
00002A59  0000              add [eax],al
00002A5B  0000              add [eax],al
00002A5D  0000              add [eax],al
00002A5F  0000              add [eax],al
00002A61  0000              add [eax],al
00002A63  0000              add [eax],al
00002A65  0000              add [eax],al
00002A67  0000              add [eax],al
00002A69  0000              add [eax],al
00002A6B  0000              add [eax],al
00002A6D  0000              add [eax],al
00002A6F  0000              add [eax],al
00002A71  0000              add [eax],al
00002A73  0000              add [eax],al
00002A75  0000              add [eax],al
00002A77  0000              add [eax],al
00002A79  0000              add [eax],al
00002A7B  0000              add [eax],al
00002A7D  0000              add [eax],al
00002A7F  0000              add [eax],al
00002A81  0000              add [eax],al
00002A83  0000              add [eax],al
00002A85  0000              add [eax],al
00002A87  0000              add [eax],al
00002A89  0000              add [eax],al
00002A8B  0000              add [eax],al
00002A8D  0000              add [eax],al
00002A8F  0000              add [eax],al
00002A91  0000              add [eax],al
00002A93  0000              add [eax],al
00002A95  0000              add [eax],al
00002A97  0000              add [eax],al
00002A99  0000              add [eax],al
00002A9B  0000              add [eax],al
00002A9D  0000              add [eax],al
00002A9F  0000              add [eax],al
00002AA1  0000              add [eax],al
00002AA3  0000              add [eax],al
00002AA5  0000              add [eax],al
00002AA7  0000              add [eax],al
00002AA9  0000              add [eax],al
00002AAB  0000              add [eax],al
00002AAD  0000              add [eax],al
00002AAF  0000              add [eax],al
00002AB1  0000              add [eax],al
00002AB3  0000              add [eax],al
00002AB5  0000              add [eax],al
00002AB7  0000              add [eax],al
00002AB9  0000              add [eax],al
00002ABB  0000              add [eax],al
00002ABD  0000              add [eax],al
00002ABF  0000              add [eax],al
00002AC1  0000              add [eax],al
00002AC3  0000              add [eax],al
00002AC5  0000              add [eax],al
00002AC7  0000              add [eax],al
00002AC9  0000              add [eax],al
00002ACB  0000              add [eax],al
00002ACD  0000              add [eax],al
00002ACF  0000              add [eax],al
00002AD1  0000              add [eax],al
00002AD3  0000              add [eax],al
00002AD5  0000              add [eax],al
00002AD7  0000              add [eax],al
00002AD9  0000              add [eax],al
00002ADB  0000              add [eax],al
00002ADD  0000              add [eax],al
00002ADF  0000              add [eax],al
00002AE1  0000              add [eax],al
00002AE3  0000              add [eax],al
00002AE5  0000              add [eax],al
00002AE7  0000              add [eax],al
00002AE9  0000              add [eax],al
00002AEB  0000              add [eax],al
00002AED  0000              add [eax],al
00002AEF  0000              add [eax],al
00002AF1  0000              add [eax],al
00002AF3  0000              add [eax],al
00002AF5  0000              add [eax],al
00002AF7  0000              add [eax],al
00002AF9  0000              add [eax],al
00002AFB  0000              add [eax],al
00002AFD  0000              add [eax],al
00002AFF  0000              add [eax],al
00002B01  0000              add [eax],al
00002B03  0000              add [eax],al
00002B05  0000              add [eax],al
00002B07  0000              add [eax],al
00002B09  0000              add [eax],al
00002B0B  0000              add [eax],al
00002B0D  0000              add [eax],al
00002B0F  0000              add [eax],al
00002B11  0000              add [eax],al
00002B13  0000              add [eax],al
00002B15  0000              add [eax],al
00002B17  0000              add [eax],al
00002B19  0000              add [eax],al
00002B1B  0000              add [eax],al
00002B1D  0000              add [eax],al
00002B1F  0000              add [eax],al
00002B21  0000              add [eax],al
00002B23  0000              add [eax],al
00002B25  0000              add [eax],al
00002B27  0000              add [eax],al
00002B29  0000              add [eax],al
00002B2B  0000              add [eax],al
00002B2D  0000              add [eax],al
00002B2F  0000              add [eax],al
00002B31  0000              add [eax],al
00002B33  0000              add [eax],al
00002B35  0000              add [eax],al
00002B37  0000              add [eax],al
00002B39  0000              add [eax],al
00002B3B  0000              add [eax],al
00002B3D  0000              add [eax],al
00002B3F  0000              add [eax],al
00002B41  0000              add [eax],al
00002B43  0000              add [eax],al
00002B45  0000              add [eax],al
00002B47  0000              add [eax],al
00002B49  0000              add [eax],al
00002B4B  0000              add [eax],al
00002B4D  0000              add [eax],al
00002B4F  0000              add [eax],al
00002B51  0000              add [eax],al
00002B53  0000              add [eax],al
00002B55  0000              add [eax],al
00002B57  0000              add [eax],al
00002B59  0000              add [eax],al
00002B5B  0000              add [eax],al
00002B5D  0000              add [eax],al
00002B5F  0000              add [eax],al
00002B61  0000              add [eax],al
00002B63  0000              add [eax],al
00002B65  0000              add [eax],al
00002B67  0000              add [eax],al
00002B69  0000              add [eax],al
00002B6B  0000              add [eax],al
00002B6D  0000              add [eax],al
00002B6F  0000              add [eax],al
00002B71  0000              add [eax],al
00002B73  0000              add [eax],al
00002B75  0000              add [eax],al
00002B77  0000              add [eax],al
00002B79  0000              add [eax],al
00002B7B  0000              add [eax],al
00002B7D  0000              add [eax],al
00002B7F  0000              add [eax],al
00002B81  0000              add [eax],al
00002B83  0000              add [eax],al
00002B85  0000              add [eax],al
00002B87  0000              add [eax],al
00002B89  0000              add [eax],al
00002B8B  0000              add [eax],al
00002B8D  0000              add [eax],al
00002B8F  0000              add [eax],al
00002B91  0000              add [eax],al
00002B93  0000              add [eax],al
00002B95  0000              add [eax],al
00002B97  0000              add [eax],al
00002B99  0000              add [eax],al
00002B9B  0000              add [eax],al
00002B9D  0000              add [eax],al
00002B9F  0000              add [eax],al
00002BA1  0000              add [eax],al
00002BA3  0000              add [eax],al
00002BA5  0000              add [eax],al
00002BA7  0000              add [eax],al
00002BA9  0000              add [eax],al
00002BAB  0000              add [eax],al
00002BAD  0000              add [eax],al
00002BAF  0000              add [eax],al
00002BB1  0000              add [eax],al
00002BB3  0000              add [eax],al
00002BB5  0000              add [eax],al
00002BB7  0000              add [eax],al
00002BB9  0000              add [eax],al
00002BBB  0000              add [eax],al
00002BBD  0000              add [eax],al
00002BBF  0000              add [eax],al
00002BC1  0000              add [eax],al
00002BC3  0000              add [eax],al
00002BC5  0000              add [eax],al
00002BC7  0000              add [eax],al
00002BC9  0000              add [eax],al
00002BCB  0000              add [eax],al
00002BCD  0000              add [eax],al
00002BCF  0000              add [eax],al
00002BD1  0000              add [eax],al
00002BD3  0000              add [eax],al
00002BD5  0000              add [eax],al
00002BD7  0000              add [eax],al
00002BD9  0000              add [eax],al
00002BDB  0000              add [eax],al
00002BDD  0000              add [eax],al
00002BDF  0000              add [eax],al
00002BE1  0000              add [eax],al
00002BE3  0000              add [eax],al
00002BE5  0000              add [eax],al
00002BE7  0000              add [eax],al
00002BE9  0000              add [eax],al
00002BEB  0000              add [eax],al
00002BED  0000              add [eax],al
00002BEF  0000              add [eax],al
00002BF1  0000              add [eax],al
00002BF3  0000              add [eax],al
00002BF5  0000              add [eax],al
00002BF7  0000              add [eax],al
00002BF9  0000              add [eax],al
00002BFB  0000              add [eax],al
00002BFD  0000              add [eax],al
00002BFF  0000              add [eax],al
00002C01  0000              add [eax],al
00002C03  0000              add [eax],al
00002C05  0000              add [eax],al
00002C07  0000              add [eax],al
00002C09  0000              add [eax],al
00002C0B  0000              add [eax],al
00002C0D  0000              add [eax],al
00002C0F  0000              add [eax],al
00002C11  0000              add [eax],al
00002C13  0000              add [eax],al
00002C15  0000              add [eax],al
00002C17  0000              add [eax],al
00002C19  0000              add [eax],al
00002C1B  0000              add [eax],al
00002C1D  0000              add [eax],al
00002C1F  0000              add [eax],al
00002C21  0000              add [eax],al
00002C23  0000              add [eax],al
00002C25  0000              add [eax],al
00002C27  0000              add [eax],al
00002C29  0000              add [eax],al
00002C2B  0000              add [eax],al
00002C2D  0000              add [eax],al
00002C2F  0000              add [eax],al
00002C31  0000              add [eax],al
00002C33  0000              add [eax],al
00002C35  0000              add [eax],al
00002C37  0000              add [eax],al
00002C39  0000              add [eax],al
00002C3B  0000              add [eax],al
00002C3D  0000              add [eax],al
00002C3F  0000              add [eax],al
00002C41  0000              add [eax],al
00002C43  0000              add [eax],al
00002C45  0000              add [eax],al
00002C47  0000              add [eax],al
00002C49  0000              add [eax],al
00002C4B  0000              add [eax],al
00002C4D  0000              add [eax],al
00002C4F  0000              add [eax],al
00002C51  0000              add [eax],al
00002C53  0000              add [eax],al
00002C55  0000              add [eax],al
00002C57  0000              add [eax],al
00002C59  0000              add [eax],al
00002C5B  0000              add [eax],al
00002C5D  0000              add [eax],al
00002C5F  0000              add [eax],al
00002C61  0000              add [eax],al
00002C63  0000              add [eax],al
00002C65  0000              add [eax],al
00002C67  0000              add [eax],al
00002C69  0000              add [eax],al
00002C6B  0000              add [eax],al
00002C6D  0000              add [eax],al
00002C6F  0000              add [eax],al
00002C71  0000              add [eax],al
00002C73  0000              add [eax],al
00002C75  0000              add [eax],al
00002C77  0000              add [eax],al
00002C79  0000              add [eax],al
00002C7B  0000              add [eax],al
00002C7D  0000              add [eax],al
00002C7F  0000              add [eax],al
00002C81  0000              add [eax],al
00002C83  0000              add [eax],al
00002C85  0000              add [eax],al
00002C87  0000              add [eax],al
00002C89  0000              add [eax],al
00002C8B  0000              add [eax],al
00002C8D  0000              add [eax],al
00002C8F  0000              add [eax],al
00002C91  0000              add [eax],al
00002C93  0000              add [eax],al
00002C95  0000              add [eax],al
00002C97  0000              add [eax],al
00002C99  0000              add [eax],al
00002C9B  0000              add [eax],al
00002C9D  0000              add [eax],al
00002C9F  0000              add [eax],al
00002CA1  0000              add [eax],al
00002CA3  0000              add [eax],al
00002CA5  0000              add [eax],al
00002CA7  0000              add [eax],al
00002CA9  0000              add [eax],al
00002CAB  0000              add [eax],al
00002CAD  0000              add [eax],al
00002CAF  0000              add [eax],al
00002CB1  0000              add [eax],al
00002CB3  0000              add [eax],al
00002CB5  0000              add [eax],al
00002CB7  0000              add [eax],al
00002CB9  0000              add [eax],al
00002CBB  0000              add [eax],al
00002CBD  0000              add [eax],al
00002CBF  0000              add [eax],al
00002CC1  0000              add [eax],al
00002CC3  0000              add [eax],al
00002CC5  0000              add [eax],al
00002CC7  0000              add [eax],al
00002CC9  0000              add [eax],al
00002CCB  0000              add [eax],al
00002CCD  0000              add [eax],al
00002CCF  0000              add [eax],al
00002CD1  0000              add [eax],al
00002CD3  0000              add [eax],al
00002CD5  0000              add [eax],al
00002CD7  0000              add [eax],al
00002CD9  0000              add [eax],al
00002CDB  0000              add [eax],al
00002CDD  0000              add [eax],al
00002CDF  0000              add [eax],al
00002CE1  0000              add [eax],al
00002CE3  0000              add [eax],al
00002CE5  0000              add [eax],al
00002CE7  0000              add [eax],al
00002CE9  0000              add [eax],al
00002CEB  0000              add [eax],al
00002CED  0000              add [eax],al
00002CEF  0000              add [eax],al
00002CF1  0000              add [eax],al
00002CF3  0000              add [eax],al
00002CF5  0000              add [eax],al
00002CF7  0000              add [eax],al
00002CF9  0000              add [eax],al
00002CFB  0000              add [eax],al
00002CFD  0000              add [eax],al
00002CFF  0000              add [eax],al
00002D01  0000              add [eax],al
00002D03  0000              add [eax],al
00002D05  0000              add [eax],al
00002D07  0000              add [eax],al
00002D09  0000              add [eax],al
00002D0B  0000              add [eax],al
00002D0D  0000              add [eax],al
00002D0F  0000              add [eax],al
00002D11  0000              add [eax],al
00002D13  0000              add [eax],al
00002D15  0000              add [eax],al
00002D17  0000              add [eax],al
00002D19  0000              add [eax],al
00002D1B  0000              add [eax],al
00002D1D  0000              add [eax],al
00002D1F  0000              add [eax],al
00002D21  0000              add [eax],al
00002D23  0000              add [eax],al
00002D25  0000              add [eax],al
00002D27  0000              add [eax],al
00002D29  0000              add [eax],al
00002D2B  0000              add [eax],al
00002D2D  0000              add [eax],al
00002D2F  0000              add [eax],al
00002D31  0000              add [eax],al
00002D33  0000              add [eax],al
00002D35  0000              add [eax],al
00002D37  0000              add [eax],al
00002D39  0000              add [eax],al
00002D3B  0000              add [eax],al
00002D3D  0000              add [eax],al
00002D3F  0000              add [eax],al
00002D41  0000              add [eax],al
00002D43  0000              add [eax],al
00002D45  0000              add [eax],al
00002D47  0000              add [eax],al
00002D49  0000              add [eax],al
00002D4B  0000              add [eax],al
00002D4D  0000              add [eax],al
00002D4F  0000              add [eax],al
00002D51  0000              add [eax],al
00002D53  0000              add [eax],al
00002D55  0000              add [eax],al
00002D57  0000              add [eax],al
00002D59  0000              add [eax],al
00002D5B  0000              add [eax],al
00002D5D  0000              add [eax],al
00002D5F  0000              add [eax],al
00002D61  0000              add [eax],al
00002D63  0000              add [eax],al
00002D65  0000              add [eax],al
00002D67  0000              add [eax],al
00002D69  0000              add [eax],al
00002D6B  0000              add [eax],al
00002D6D  0000              add [eax],al
00002D6F  0000              add [eax],al
00002D71  0000              add [eax],al
00002D73  0000              add [eax],al
00002D75  0000              add [eax],al
00002D77  0000              add [eax],al
00002D79  0000              add [eax],al
00002D7B  0000              add [eax],al
00002D7D  0000              add [eax],al
00002D7F  0000              add [eax],al
00002D81  0000              add [eax],al
00002D83  0000              add [eax],al
00002D85  0000              add [eax],al
00002D87  0000              add [eax],al
00002D89  0000              add [eax],al
00002D8B  0000              add [eax],al
00002D8D  0000              add [eax],al
00002D8F  0000              add [eax],al
00002D91  0000              add [eax],al
00002D93  0000              add [eax],al
00002D95  0000              add [eax],al
00002D97  0000              add [eax],al
00002D99  0000              add [eax],al
00002D9B  0000              add [eax],al
00002D9D  0000              add [eax],al
00002D9F  0000              add [eax],al
00002DA1  0000              add [eax],al
00002DA3  0000              add [eax],al
00002DA5  0000              add [eax],al
00002DA7  0000              add [eax],al
00002DA9  0000              add [eax],al
00002DAB  0000              add [eax],al
00002DAD  0000              add [eax],al
00002DAF  0000              add [eax],al
00002DB1  0000              add [eax],al
00002DB3  0000              add [eax],al
00002DB5  0000              add [eax],al
00002DB7  0000              add [eax],al
00002DB9  0000              add [eax],al
00002DBB  0000              add [eax],al
00002DBD  0000              add [eax],al
00002DBF  0000              add [eax],al
00002DC1  0000              add [eax],al
00002DC3  0000              add [eax],al
00002DC5  0000              add [eax],al
00002DC7  0000              add [eax],al
00002DC9  0000              add [eax],al
00002DCB  0000              add [eax],al
00002DCD  0000              add [eax],al
00002DCF  0000              add [eax],al
00002DD1  0000              add [eax],al
00002DD3  0000              add [eax],al
00002DD5  0000              add [eax],al
00002DD7  0000              add [eax],al
00002DD9  0000              add [eax],al
00002DDB  0000              add [eax],al
00002DDD  0000              add [eax],al
00002DDF  0000              add [eax],al
00002DE1  0000              add [eax],al
00002DE3  0000              add [eax],al
00002DE5  0000              add [eax],al
00002DE7  0000              add [eax],al
00002DE9  0000              add [eax],al
00002DEB  0000              add [eax],al
00002DED  0000              add [eax],al
00002DEF  0000              add [eax],al
00002DF1  0000              add [eax],al
00002DF3  0000              add [eax],al
00002DF5  0000              add [eax],al
00002DF7  0000              add [eax],al
00002DF9  0000              add [eax],al
00002DFB  0000              add [eax],al
00002DFD  0000              add [eax],al
00002DFF  0000              add [eax],al
00002E01  0000              add [eax],al
00002E03  0000              add [eax],al
00002E05  0000              add [eax],al
00002E07  0000              add [eax],al
00002E09  0000              add [eax],al
00002E0B  0000              add [eax],al
00002E0D  0000              add [eax],al
00002E0F  0000              add [eax],al
00002E11  0000              add [eax],al
00002E13  0000              add [eax],al
00002E15  0000              add [eax],al
00002E17  0000              add [eax],al
00002E19  0000              add [eax],al
00002E1B  0000              add [eax],al
00002E1D  0000              add [eax],al
00002E1F  0000              add [eax],al
00002E21  0000              add [eax],al
00002E23  0000              add [eax],al
00002E25  0000              add [eax],al
00002E27  0000              add [eax],al
00002E29  0000              add [eax],al
00002E2B  0000              add [eax],al
00002E2D  0000              add [eax],al
00002E2F  0000              add [eax],al
00002E31  0000              add [eax],al
00002E33  0000              add [eax],al
00002E35  0000              add [eax],al
00002E37  0000              add [eax],al
00002E39  0000              add [eax],al
00002E3B  0000              add [eax],al
00002E3D  0000              add [eax],al
00002E3F  0000              add [eax],al
00002E41  0000              add [eax],al
00002E43  0000              add [eax],al
00002E45  0000              add [eax],al
00002E47  0000              add [eax],al
00002E49  0000              add [eax],al
00002E4B  0000              add [eax],al
00002E4D  0000              add [eax],al
00002E4F  0000              add [eax],al
00002E51  0000              add [eax],al
00002E53  0000              add [eax],al
00002E55  0000              add [eax],al
00002E57  0000              add [eax],al
00002E59  0000              add [eax],al
00002E5B  0000              add [eax],al
00002E5D  0000              add [eax],al
00002E5F  0000              add [eax],al
00002E61  0000              add [eax],al
00002E63  0000              add [eax],al
00002E65  0000              add [eax],al
00002E67  0000              add [eax],al
00002E69  0000              add [eax],al
00002E6B  0000              add [eax],al
00002E6D  0000              add [eax],al
00002E6F  0000              add [eax],al
00002E71  0000              add [eax],al
00002E73  0000              add [eax],al
00002E75  0000              add [eax],al
00002E77  0000              add [eax],al
00002E79  0000              add [eax],al
00002E7B  0000              add [eax],al
00002E7D  0000              add [eax],al
00002E7F  0000              add [eax],al
00002E81  0000              add [eax],al
00002E83  0000              add [eax],al
00002E85  0000              add [eax],al
00002E87  0000              add [eax],al
00002E89  0000              add [eax],al
00002E8B  0000              add [eax],al
00002E8D  0000              add [eax],al
00002E8F  0000              add [eax],al
00002E91  0000              add [eax],al
00002E93  0000              add [eax],al
00002E95  0000              add [eax],al
00002E97  0000              add [eax],al
00002E99  0000              add [eax],al
00002E9B  0000              add [eax],al
00002E9D  0000              add [eax],al
00002E9F  0000              add [eax],al
00002EA1  0000              add [eax],al
00002EA3  0000              add [eax],al
00002EA5  0000              add [eax],al
00002EA7  0000              add [eax],al
00002EA9  0000              add [eax],al
00002EAB  0000              add [eax],al
00002EAD  0000              add [eax],al
00002EAF  0000              add [eax],al
00002EB1  0000              add [eax],al
00002EB3  0000              add [eax],al
00002EB5  0000              add [eax],al
00002EB7  0000              add [eax],al
00002EB9  0000              add [eax],al
00002EBB  0000              add [eax],al
00002EBD  0000              add [eax],al
00002EBF  0000              add [eax],al
00002EC1  0000              add [eax],al
00002EC3  0000              add [eax],al
00002EC5  0000              add [eax],al
00002EC7  0000              add [eax],al
00002EC9  0000              add [eax],al
00002ECB  0000              add [eax],al
00002ECD  0000              add [eax],al
00002ECF  0000              add [eax],al
00002ED1  0000              add [eax],al
00002ED3  0000              add [eax],al
00002ED5  0000              add [eax],al
00002ED7  0000              add [eax],al
00002ED9  0000              add [eax],al
00002EDB  0000              add [eax],al
00002EDD  0000              add [eax],al
00002EDF  0000              add [eax],al
00002EE1  0000              add [eax],al
00002EE3  0000              add [eax],al
00002EE5  0000              add [eax],al
00002EE7  0000              add [eax],al
00002EE9  0000              add [eax],al
00002EEB  0000              add [eax],al
00002EED  0000              add [eax],al
00002EEF  0000              add [eax],al
00002EF1  0000              add [eax],al
00002EF3  0000              add [eax],al
00002EF5  0000              add [eax],al
00002EF7  0000              add [eax],al
00002EF9  0000              add [eax],al
00002EFB  0000              add [eax],al
00002EFD  0000              add [eax],al
00002EFF  0000              add [eax],al
00002F01  0000              add [eax],al
00002F03  0000              add [eax],al
00002F05  0000              add [eax],al
00002F07  0000              add [eax],al
00002F09  0000              add [eax],al
00002F0B  0000              add [eax],al
00002F0D  0000              add [eax],al
00002F0F  0000              add [eax],al
00002F11  0000              add [eax],al
00002F13  0000              add [eax],al
00002F15  0000              add [eax],al
00002F17  0000              add [eax],al
00002F19  0000              add [eax],al
00002F1B  0000              add [eax],al
00002F1D  0000              add [eax],al
00002F1F  0000              add [eax],al
00002F21  0000              add [eax],al
00002F23  0000              add [eax],al
00002F25  0000              add [eax],al
00002F27  0000              add [eax],al
00002F29  0000              add [eax],al
00002F2B  0000              add [eax],al
00002F2D  0000              add [eax],al
00002F2F  0000              add [eax],al
00002F31  0000              add [eax],al
00002F33  0000              add [eax],al
00002F35  0000              add [eax],al
00002F37  0000              add [eax],al
00002F39  0000              add [eax],al
00002F3B  0000              add [eax],al
00002F3D  0000              add [eax],al
00002F3F  0000              add [eax],al
00002F41  0000              add [eax],al
00002F43  0000              add [eax],al
00002F45  0000              add [eax],al
00002F47  0000              add [eax],al
00002F49  0000              add [eax],al
00002F4B  0000              add [eax],al
00002F4D  0000              add [eax],al
00002F4F  0000              add [eax],al
00002F51  0000              add [eax],al
00002F53  0000              add [eax],al
00002F55  0000              add [eax],al
00002F57  0000              add [eax],al
00002F59  0000              add [eax],al
00002F5B  0000              add [eax],al
00002F5D  0000              add [eax],al
00002F5F  0000              add [eax],al
00002F61  0000              add [eax],al
00002F63  0000              add [eax],al
00002F65  0000              add [eax],al
00002F67  0000              add [eax],al
00002F69  0000              add [eax],al
00002F6B  0000              add [eax],al
00002F6D  0000              add [eax],al
00002F6F  0000              add [eax],al
00002F71  0000              add [eax],al
00002F73  0000              add [eax],al
00002F75  0000              add [eax],al
00002F77  0000              add [eax],al
00002F79  0000              add [eax],al
00002F7B  0000              add [eax],al
00002F7D  0000              add [eax],al
00002F7F  0000              add [eax],al
00002F81  0000              add [eax],al
00002F83  0000              add [eax],al
00002F85  0000              add [eax],al
00002F87  0000              add [eax],al
00002F89  0000              add [eax],al
00002F8B  0000              add [eax],al
00002F8D  0000              add [eax],al
00002F8F  0000              add [eax],al
00002F91  0000              add [eax],al
00002F93  0000              add [eax],al
00002F95  0000              add [eax],al
00002F97  0000              add [eax],al
00002F99  0000              add [eax],al
00002F9B  0000              add [eax],al
00002F9D  0000              add [eax],al
00002F9F  0000              add [eax],al
00002FA1  0000              add [eax],al
00002FA3  0000              add [eax],al
00002FA5  0000              add [eax],al
00002FA7  0000              add [eax],al
00002FA9  0000              add [eax],al
00002FAB  0000              add [eax],al
00002FAD  0000              add [eax],al
00002FAF  0000              add [eax],al
00002FB1  0000              add [eax],al
00002FB3  0000              add [eax],al
00002FB5  0000              add [eax],al
00002FB7  0000              add [eax],al
00002FB9  0000              add [eax],al
00002FBB  0000              add [eax],al
00002FBD  0000              add [eax],al
00002FBF  0000              add [eax],al
00002FC1  0000              add [eax],al
00002FC3  0000              add [eax],al
00002FC5  0000              add [eax],al
00002FC7  0000              add [eax],al
00002FC9  0000              add [eax],al
00002FCB  0000              add [eax],al
00002FCD  0000              add [eax],al
00002FCF  0000              add [eax],al
00002FD1  0000              add [eax],al
00002FD3  0000              add [eax],al
00002FD5  0000              add [eax],al
00002FD7  0000              add [eax],al
00002FD9  0000              add [eax],al
00002FDB  0000              add [eax],al
00002FDD  0000              add [eax],al
00002FDF  0000              add [eax],al
00002FE1  0000              add [eax],al
00002FE3  0000              add [eax],al
00002FE5  0000              add [eax],al
00002FE7  0000              add [eax],al
00002FE9  0000              add [eax],al
00002FEB  0000              add [eax],al
00002FED  0000              add [eax],al
00002FEF  0000              add [eax],al
00002FF1  0000              add [eax],al
00002FF3  0000              add [eax],al
00002FF5  0000              add [eax],al
00002FF7  0000              add [eax],al
00002FF9  0000              add [eax],al
00002FFB  0000              add [eax],al
00002FFD  0000              add [eax],al
00002FFF  001400            add [eax+eax],dl
00003002  0000              add [eax],al
00003004  0000              add [eax],al
00003006  0000              add [eax],al
00003008  017A52            add [edx+0x52],edi
0000300B  0001              add [ecx],al
0000300D  7C08              jl 0x3017
0000300F  011B              add [ebx],ebx
00003011  0C04              or al,0x4
00003013  0488              add al,0x88
00003015  0100              add [eax],eax
00003017  001C00            add [eax+eax],bl
0000301A  0000              add [eax],al
0000301C  1C00              sbb al,0x0
0000301E  0000              add [eax],al
00003020  08D1              or cl,dl
00003022  FF                db 0xff
00003023  FF5800            call far [eax+0x0]
00003026  0000              add [eax],al
00003028  00410E            add [ecx+0xe],al
0000302B  088502420D05      or [ebp+0x50d4202],al
00003031  0254C50C          add dl,[ebp+eax*8+0xc]
00003035  0404              add al,0x4
00003037  001C00            add [eax+eax],bl
0000303A  0000              add [eax],al
0000303C  3C00              cmp al,0x0
0000303E  0000              add [eax],al
00003040  40                inc eax
00003041  D1FF              sar edi,1
00003043  FF440000          inc dword [eax+eax+0x0]
00003047  0000              add [eax],al
00003049  41                inc ecx
0000304A  0E                push cs
0000304B  088502420D05      or [ebp+0x50d4202],al
00003051  0240C5            add al,[eax-0x3b]
00003054  0C04              or al,0x4
00003056  0400              add al,0x0
00003058  1400              adc al,0x0
0000305A  0000              add [eax],al
0000305C  0000              add [eax],al
0000305E  0000              add [eax],al
00003060  017A52            add [edx+0x52],edi
00003063  0001              add [ecx],al
00003065  7C08              jl 0x306f
00003067  011B              add [ebx],ebx
00003069  0C04              or al,0x4
0000306B  0488              add al,0x88
0000306D  0100              add [eax],eax
0000306F  001C00            add [eax+eax],bl
00003072  0000              add [eax],al
00003074  1C00              sbb al,0x0
00003076  0000              add [eax],al
00003078  4C                dec esp
00003079  D1FF              sar edi,1
0000307B  FF9E03000000      call far [esi+0x3]
00003081  41                inc ecx
00003082  0E                push cs
00003083  088502420D05      or [ebp+0x50d4202],al
00003089  039A03C50C04      add ebx,[edx+0x40cc503]
0000308F  041C              add al,0x1c
00003091  0000              add [eax],al
00003093  003C00            add [eax+eax],bh
00003096  0000              add [eax],al
00003098  CAD4FF            retf 0xffd4
0000309B  FF9C0000000041    call far [eax+eax+0x41000000]
000030A2  0E                push cs
000030A3  088502420D05      or [ebp+0x50d4202],al
000030A9  0298C50C0404      add bl,[eax+0x4040cc5]
000030AF  001400            add [eax+eax],dl
000030B2  0000              add [eax],al
000030B4  0000              add [eax],al
000030B6  0000              add [eax],al
000030B8  017A52            add [edx+0x52],edi
000030BB  0001              add [ecx],al
000030BD  7C08              jl 0x30c7
000030BF  011B              add [ebx],ebx
000030C1  0C04              or al,0x4
000030C3  0488              add al,0x88
000030C5  0100              add [eax],eax
000030C7  001C00            add [eax+eax],bl
000030CA  0000              add [eax],al
000030CC  1C00              sbb al,0x0
000030CE  0000              add [eax],al
000030D0  30D5              xor ch,dl
000030D2  FF                db 0xff
000030D3  FF0E              dec dword [esi]
000030D5  0000              add [eax],al
000030D7  0000              add [eax],al
000030D9  41                inc ecx
000030DA  0E                push cs
000030DB  088502420D05      or [ebp+0x50d4202],al
000030E1  4A                dec edx
000030E2  C50C04            lds ecx,[esp+eax]
000030E5  0400              add al,0x0
000030E7  001C00            add [eax+eax],bl
000030EA  0000              add [eax],al
000030EC  3C00              cmp al,0x0
000030EE  0000              add [eax],al
000030F0  1E                push ds
000030F1  D5FF              aad 0xff
000030F3  FF0E              dec dword [esi]
000030F5  0000              add [eax],al
000030F7  0000              add [eax],al
000030F9  41                inc ecx
000030FA  0E                push cs
000030FB  088502420D05      or [ebp+0x50d4202],al
00003101  4A                dec edx
00003102  C50C04            lds ecx,[esp+eax]
00003105  0400              add al,0x0
00003107  001400            add [eax+eax],dl
0000310A  0000              add [eax],al
0000310C  0000              add [eax],al
0000310E  0000              add [eax],al
00003110  017A52            add [edx+0x52],edi
00003113  0001              add [ecx],al
00003115  7C08              jl 0x311f
00003117  011B              add [ebx],ebx
00003119  0C04              or al,0x4
0000311B  0488              add al,0x88
0000311D  0100              add [eax],eax
0000311F  001C00            add [eax+eax],bl
00003122  0000              add [eax],al
00003124  1C00              sbb al,0x0
00003126  0000              add [eax],al
00003128  F4                hlt
00003129  D4FF              aam 0xff
0000312B  FF1D00000000      call far [dword 0x0]
00003131  41                inc ecx
00003132  0E                push cs
00003133  088502420D05      or [ebp+0x50d4202],al
00003139  59                pop ecx
0000313A  C50C04            lds ecx,[esp+eax]
0000313D  0400              add al,0x0
0000313F  001C00            add [eax+eax],bl
00003142  0000              add [eax],al
00003144  3C00              cmp al,0x0
00003146  0000              add [eax],al
00003148  F1                int1
00003149  D4FF              aam 0xff
0000314B  FF1F              call far [edi]
0000314D  0000              add [eax],al
0000314F  0000              add [eax],al
00003151  41                inc ecx
00003152  0E                push cs
00003153  088502420D05      or [ebp+0x50d4202],al
00003159  5B                pop ebx
0000315A  C50C04            lds ecx,[esp+eax]
0000315D  0400              add al,0x0
0000315F  001C00            add [eax+eax],bl
00003162  0000              add [eax],al
00003164  5C                pop esp
00003165  0000              add [eax],al
00003167  00F0              add al,dh
00003169  D4FF              aam 0xff
0000316B  FF1F              call far [edi]
0000316D  0000              add [eax],al
0000316F  0000              add [eax],al
00003171  41                inc ecx
00003172  0E                push cs
00003173  088502420D05      or [ebp+0x50d4202],al
00003179  5B                pop ebx
0000317A  C50C04            lds ecx,[esp+eax]
0000317D  0400              add al,0x0
0000317F  001C00            add [eax+eax],bl
00003182  0000              add [eax],al
00003184  7C00              jl 0x3186
00003186  0000              add [eax],al
00003188  EF                out dx,eax
00003189  D4FF              aam 0xff
0000318B  FF21              jmp [ecx]
0000318D  0000              add [eax],al
0000318F  0000              add [eax],al
00003191  41                inc ecx
00003192  0E                push cs
00003193  088502420D05      or [ebp+0x50d4202],al
00003199  5D                pop ebp
0000319A  C50C04            lds ecx,[esp+eax]
0000319D  0400              add al,0x0
0000319F  001400            add [eax+eax],dl
000031A2  0000              add [eax],al
000031A4  0000              add [eax],al
000031A6  0000              add [eax],al
000031A8  017A52            add [edx+0x52],edi
000031AB  0001              add [ecx],al
000031AD  7C08              jl 0x31b7
000031AF  011B              add [ebx],ebx
000031B1  0C04              or al,0x4
000031B3  0488              add al,0x88
000031B5  0100              add [eax],eax
000031B7  001C00            add [eax+eax],bl
000031BA  0000              add [eax],al
000031BC  1C00              sbb al,0x0
000031BE  0000              add [eax],al
000031C0  D8D4              fcom st4
000031C2  FF                db 0xff
000031C3  FFC6              inc esi
000031C5  0000              add [eax],al
000031C7  0000              add [eax],al
000031C9  41                inc ecx
000031CA  0E                push cs
000031CB  088502420D05      or [ebp+0x50d4202],al
000031D1  02C2              add al,dl
000031D3  C50C04            lds ecx,[esp+eax]
000031D6  0400              add al,0x0
000031D8  1C00              sbb al,0x0
000031DA  0000              add [eax],al
000031DC  3C00              cmp al,0x0
000031DE  0000              add [eax],al
000031E0  7ED5              jng 0x31b7
000031E2  FF                db 0xff
000031E3  FF4C0000          dec dword [eax+eax+0x0]
000031E7  0000              add [eax],al
000031E9  41                inc ecx
000031EA  0E                push cs
000031EB  088502420D05      or [ebp+0x50d4202],al
000031F1  0248C5            add cl,[eax-0x3b]
000031F4  0C04              or al,0x4
000031F6  0400              add al,0x0
000031F8  1C00              sbb al,0x0
000031FA  0000              add [eax],al
000031FC  5C                pop esp
000031FD  0000              add [eax],al
000031FF  00AAD5FFFF51      add [edx+0x51ffffd5],ch
00003205  0000              add [eax],al
00003207  0000              add [eax],al
00003209  41                inc ecx
0000320A  0E                push cs
0000320B  088502420D05      or [ebp+0x50d4202],al
00003211  024DC5            add cl,[ebp-0x3b]
00003214  0C04              or al,0x4
00003216  0400              add al,0x0
00003218  1C00              sbb al,0x0
0000321A  0000              add [eax],al
0000321C  7C00              jl 0x321e
0000321E  0000              add [eax],al
00003220  DBD5              fcmovnbe st5
00003222  FF                db 0xff
00003223  FF1B              call far [ebx]
00003225  0000              add [eax],al
00003227  0000              add [eax],al
00003229  41                inc ecx
0000322A  0E                push cs
0000322B  088502420D05      or [ebp+0x50d4202],al
00003231  57                push edi
00003232  C50C04            lds ecx,[esp+eax]
00003235  0400              add al,0x0
00003237  001C00            add [eax+eax],bl
0000323A  0000              add [eax],al
0000323C  9C                pushf
0000323D  0000              add [eax],al
0000323F  00D6              add dh,dl
00003241  D5FF              aad 0xff
00003243  FF5C0000          call far [eax+eax+0x0]
00003247  0000              add [eax],al
00003249  41                inc ecx
0000324A  0E                push cs
0000324B  088502420D05      or [ebp+0x50d4202],al
00003251  0258C5            add bl,[eax-0x3b]
00003254  0C04              or al,0x4
00003256  0400              add al,0x0
00003258  1C00              sbb al,0x0
0000325A  0000              add [eax],al
0000325C  BC00000012        mov esp,0x12000000
00003261  D6                salc
00003262  FF                db 0xff
00003263  FF6F00            jmp far [edi+0x0]
00003266  0000              add [eax],al
00003268  00410E            add [ecx+0xe],al
0000326B  088502420D05      or [ebp+0x50d4202],al
00003271  026BC5            add ch,[ebx-0x3b]
00003274  0C04              or al,0x4
00003276  0400              add al,0x0
00003278  1C00              sbb al,0x0
0000327A  0000              add [eax],al
0000327C  DC00              fadd qword [eax]
0000327E  0000              add [eax],al
00003280  61                popa
00003281  D6                salc
00003282  FF                db 0xff
00003283  FF9100000000      call [ecx+0x0]
00003289  41                inc ecx
0000328A  0E                push cs
0000328B  088502420D05      or [ebp+0x50d4202],al
00003291  028DC50C0404      add cl,[ebp+0x4040cc5]
00003297  001C00            add [eax+eax],bl
0000329A  0000              add [eax],al
0000329C  FC                cld
0000329D  0000              add [eax],al
0000329F  00D2              add dl,dl
000032A1  D6                salc
000032A2  FF                db 0xff
000032A3  FF31              push dword [ecx]
000032A5  0000              add [eax],al
000032A7  0000              add [eax],al
000032A9  41                inc ecx
000032AA  0E                push cs
000032AB  088502420D05      or [ebp+0x50d4202],al
000032B1  6D                insd
000032B2  C50C04            lds ecx,[esp+eax]
000032B5  0400              add al,0x0
000032B7  001C00            add [eax+eax],bl
000032BA  0000              add [eax],al
000032BC  1C01              sbb al,0x1
000032BE  0000              add [eax],al
000032C0  E3D6              jecxz 0x3298
000032C2  FF                db 0xff
000032C3  FF22              jmp [edx]
000032C5  0000              add [eax],al
000032C7  0000              add [eax],al
000032C9  41                inc ecx
000032CA  0E                push cs
000032CB  088502420D05      or [ebp+0x50d4202],al
000032D1  5E                pop esi
000032D2  C50C04            lds ecx,[esp+eax]
000032D5  0400              add al,0x0
000032D7  001C00            add [eax+eax],bl
000032DA  0000              add [eax],al
000032DC  3C01              cmp al,0x1
000032DE  0000              add [eax],al
000032E0  E5D6              in eax,0xd6
000032E2  FF                db 0xff
000032E3  FF33              push dword [ebx]
000032E5  0000              add [eax],al
000032E7  0000              add [eax],al
000032E9  41                inc ecx
000032EA  0E                push cs
000032EB  088502420D05      or [ebp+0x50d4202],al
000032F1  6F                outsd
000032F2  C50C04            lds ecx,[esp+eax]
000032F5  0400              add al,0x0
000032F7  001C00            add [eax+eax],bl
000032FA  0000              add [eax],al
000032FC  5C                pop esp
000032FD  0100              add [eax],eax
000032FF  00F8              add al,bh
00003301  D6                salc
00003302  FF                db 0xff
00003303  FF6200            jmp [edx+0x0]
00003306  0000              add [eax],al
00003308  00410E            add [ecx+0xe],al
0000330B  088502420D05      or [ebp+0x50d4202],al
00003311  025EC5            add bl,[esi-0x3b]
00003314  0C04              or al,0x4
00003316  0400              add al,0x0
00003318  1C00              sbb al,0x0
0000331A  0000              add [eax],al
0000331C  7C01              jl 0x331f
0000331E  0000              add [eax],al
00003320  3AD7              cmp dl,bh
00003322  FF                db 0xff
00003323  FF2C00            jmp far [eax+eax]
00003326  0000              add [eax],al
00003328  00410E            add [ecx+0xe],al
0000332B  088502420D05      or [ebp+0x50d4202],al
00003331  68C50C0404        push dword 0x4040cc5
00003336  0000              add [eax],al
00003338  1C00              sbb al,0x0
0000333A  0000              add [eax],al
0000333C  9C                pushf
0000333D  0100              add [eax],eax
0000333F  0046D7            add [esi-0x29],al
00003342  FF                db 0xff
00003343  FF2B              jmp far [ebx]
00003345  0000              add [eax],al
00003347  0000              add [eax],al
00003349  41                inc ecx
0000334A  0E                push cs
0000334B  088502420D05      or [ebp+0x50d4202],al
00003351  67C50C            lds ecx,[si]
00003354  0404              add al,0x4
00003356  0000              add [eax],al
00003358  1C00              sbb al,0x0
0000335A  0000              add [eax],al
0000335C  BC01000051        mov esp,0x51000001
00003361  D7                xlatb
00003362  FF                db 0xff
00003363  FF5501            call [ebp+0x1]
00003366  0000              add [eax],al
00003368  00410E            add [ecx+0xe],al
0000336B  088502420D05      or [ebp+0x50d4202],al
00003371  035101            add edx,[ecx+0x1]
00003374  C50C04            lds ecx,[esp+eax]
00003377  041C              add al,0x1c
00003379  0000              add [eax],al
0000337B  00DC              add ah,bl
0000337D  0100              add [eax],eax
0000337F  0086D8FFFF4D      add [esi+0x4dffffd8],al
00003385  0000              add [eax],al
00003387  0000              add [eax],al
00003389  41                inc ecx
0000338A  0E                push cs
0000338B  088502420D05      or [ebp+0x50d4202],al
00003391  0249C5            add cl,[ecx-0x3b]
00003394  0C04              or al,0x4
00003396  0400              add al,0x0
00003398  2000              and [eax],al
0000339A  0000              add [eax],al
0000339C  FC                cld
0000339D  0100              add [eax],eax
0000339F  00B3D8FFFFC1      add [ebx-0x3e000028],dh
000033A5  0000              add [eax],al
000033A7  0000              add [eax],al
000033A9  41                inc ecx
000033AA  0E                push cs
000033AB  088502420D05      or [ebp+0x50d4202],al
000033B1  44                inc esp
000033B2  830302            add dword [ebx],byte +0x2
000033B5  B8C341C50C        mov eax,0xcc541c3
000033BA  0404              add al,0x4
000033BC  1C00              sbb al,0x0
000033BE  0000              add [eax],al
000033C0  2002              and [edx],al
000033C2  0000              add [eax],al
000033C4  50                push eax
000033C5  D9FF              fcos
000033C7  FF0A              dec dword [edx]
000033C9  0100              add [eax],eax
000033CB  0000              add [eax],al
000033CD  41                inc ecx
000033CE  0E                push cs
000033CF  088502420D05      or [ebp+0x50d4202],al
000033D5  0306              add eax,[esi]
000033D7  01C5              add ebp,eax
000033D9  0C04              or al,0x4
000033DB  0414              add al,0x14
000033DD  0000              add [eax],al
000033DF  0000              add [eax],al
000033E1  0000              add [eax],al
000033E3  0001              add [ecx],al
000033E5  7A52              jpe 0x3439
000033E7  0001              add [ecx],al
000033E9  7C08              jl 0x33f3
000033EB  011B              add [ebx],ebx
000033ED  0C04              or al,0x4
000033EF  0488              add al,0x88
000033F1  0100              add [eax],eax
000033F3  001C00            add [eax+eax],bl
000033F6  0000              add [eax],al
000033F8  1C00              sbb al,0x0
000033FA  0000              add [eax],al
000033FC  24DA              and al,0xda
000033FE  FF                db 0xff
000033FF  FF33              push dword [ebx]
00003401  0000              add [eax],al
00003403  0000              add [eax],al
00003405  41                inc ecx
00003406  0E                push cs
00003407  088502420D05      or [ebp+0x50d4202],al
0000340D  6F                outsd
0000340E  C50C04            lds ecx,[esp+eax]
00003411  0400              add al,0x0
00003413  001C00            add [eax+eax],bl
00003416  0000              add [eax],al
00003418  3C00              cmp al,0x0
0000341A  0000              add [eax],al
0000341C  37                aaa
0000341D  DA                db 0xda
0000341E  FF                db 0xff
0000341F  FF32              push dword [edx]
00003421  0000              add [eax],al
00003423  0000              add [eax],al
00003425  41                inc ecx
00003426  0E                push cs
00003427  088502420D05      or [ebp+0x50d4202],al
0000342D  6E                outsb
0000342E  C50C04            lds ecx,[esp+eax]
00003431  0400              add al,0x0
00003433  001C00            add [eax+eax],bl
00003436  0000              add [eax],al
00003438  5C                pop esp
00003439  0000              add [eax],al
0000343B  0049DA            add [ecx-0x26],cl
0000343E  FF                db 0xff
0000343F  FF37              push dword [edi]
00003441  0000              add [eax],al
00003443  0000              add [eax],al
00003445  41                inc ecx
00003446  0E                push cs
00003447  088502420D05      or [ebp+0x50d4202],al
0000344D  73C5              jnc 0x3414
0000344F  0C04              or al,0x4
00003451  0400              add al,0x0
00003453  001400            add [eax+eax],dl
00003456  0000              add [eax],al
00003458  0000              add [eax],al
0000345A  0000              add [eax],al
0000345C  017A52            add [edx+0x52],edi
0000345F  0001              add [ecx],al
00003461  7C08              jl 0x346b
00003463  011B              add [ebx],ebx
00003465  0C04              or al,0x4
00003467  0488              add al,0x88
00003469  0100              add [eax],eax
0000346B  001C00            add [eax+eax],bl
0000346E  0000              add [eax],al
00003470  1C00              sbb al,0x0
00003472  0000              add [eax],al
00003474  48                dec eax
00003475  DA                db 0xda
00003476  FF                db 0xff
00003477  FFE2              jmp edx
00003479  0000              add [eax],al
0000347B  0000              add [eax],al
0000347D  41                inc ecx
0000347E  0E                push cs
0000347F  088502420D05      or [ebp+0x50d4202],al
00003485  02DE              add bl,dh
00003487  C50C04            lds ecx,[esp+eax]
0000348A  0400              add al,0x0
0000348C  1C00              sbb al,0x0
0000348E  0000              add [eax],al
00003490  3C00              cmp al,0x0
00003492  0000              add [eax],al
00003494  0ADB              or bl,bl
00003496  FF                db 0xff
00003497  FF28              jmp far [eax]
00003499  0000              add [eax],al
0000349B  0000              add [eax],al
0000349D  41                inc ecx
0000349E  0E                push cs
0000349F  088502420D05      or [ebp+0x50d4202],al
000034A5  64C50C04          lds ecx,[fs:esp+eax]
000034A9  0400              add al,0x0
000034AB  001400            add [eax+eax],dl
000034AE  0000              add [eax],al
000034B0  0000              add [eax],al
000034B2  0000              add [eax],al
000034B4  017A52            add [edx+0x52],edi
000034B7  0001              add [ecx],al
000034B9  7C08              jl 0x34c3
000034BB  011B              add [ebx],ebx
000034BD  0C04              or al,0x4
000034BF  0488              add al,0x88
000034C1  0100              add [eax],eax
000034C3  001C00            add [eax+eax],bl
000034C6  0000              add [eax],al
000034C8  1C00              sbb al,0x0
000034CA  0000              add [eax],al
000034CC  FC                cld
000034CD  DA                db 0xda
000034CE  FF                db 0xff
000034CF  FF2500000000      jmp [dword 0x0]
000034D5  41                inc ecx
000034D6  0E                push cs
000034D7  088502420D05      or [ebp+0x50d4202],al
000034DD  61                popa
000034DE  C50C04            lds ecx,[esp+eax]
000034E1  0400              add al,0x0
000034E3  0000              add [eax],al
000034E5  0000              add [eax],al
000034E7  0000              add [eax],al
000034E9  0000              add [eax],al
000034EB  0000              add [eax],al
000034ED  0000              add [eax],al
000034EF  0000              add [eax],al
000034F1  0000              add [eax],al
000034F3  0000              add [eax],al
000034F5  0000              add [eax],al
000034F7  0000              add [eax],al
000034F9  0000              add [eax],al
000034FB  0000              add [eax],al
000034FD  0000              add [eax],al
000034FF  0000              add [eax],al
00003501  0000              add [eax],al
00003503  0000              add [eax],al
00003505  0000              add [eax],al
00003507  0000              add [eax],al
00003509  0000              add [eax],al
0000350B  0000              add [eax],al
0000350D  0000              add [eax],al
0000350F  0000              add [eax],al
00003511  0000              add [eax],al
00003513  0000              add [eax],al
00003515  0000              add [eax],al
00003517  0000              add [eax],al
00003519  0000              add [eax],al
0000351B  0000              add [eax],al
0000351D  0000              add [eax],al
0000351F  0000              add [eax],al
00003521  0000              add [eax],al
00003523  0000              add [eax],al
00003525  0000              add [eax],al
00003527  0000              add [eax],al
00003529  0000              add [eax],al
0000352B  0000              add [eax],al
0000352D  0000              add [eax],al
0000352F  0000              add [eax],al
00003531  0000              add [eax],al
00003533  0000              add [eax],al
00003535  0000              add [eax],al
00003537  0000              add [eax],al
00003539  0000              add [eax],al
0000353B  0000              add [eax],al
0000353D  0000              add [eax],al
0000353F  0000              add [eax],al
00003541  0000              add [eax],al
00003543  0000              add [eax],al
00003545  0000              add [eax],al
00003547  0000              add [eax],al
00003549  0000              add [eax],al
0000354B  0000              add [eax],al
0000354D  0000              add [eax],al
0000354F  0000              add [eax],al
00003551  0000              add [eax],al
00003553  0000              add [eax],al
00003555  0000              add [eax],al
00003557  0000              add [eax],al
00003559  0000              add [eax],al
0000355B  0000              add [eax],al
0000355D  0000              add [eax],al
0000355F  0000              add [eax],al
00003561  0000              add [eax],al
00003563  0000              add [eax],al
00003565  0000              add [eax],al
00003567  0000              add [eax],al
00003569  0000              add [eax],al
0000356B  0000              add [eax],al
0000356D  0000              add [eax],al
0000356F  0000              add [eax],al
00003571  0000              add [eax],al
00003573  0000              add [eax],al
00003575  0000              add [eax],al
00003577  0000              add [eax],al
00003579  0000              add [eax],al
0000357B  0000              add [eax],al
0000357D  0000              add [eax],al
0000357F  0000              add [eax],al
00003581  0000              add [eax],al
00003583  0000              add [eax],al
00003585  0000              add [eax],al
00003587  0000              add [eax],al
00003589  0000              add [eax],al
0000358B  0000              add [eax],al
0000358D  0000              add [eax],al
0000358F  0000              add [eax],al
00003591  0000              add [eax],al
00003593  0000              add [eax],al
00003595  0000              add [eax],al
00003597  0000              add [eax],al
00003599  0000              add [eax],al
0000359B  0000              add [eax],al
0000359D  0000              add [eax],al
0000359F  0000              add [eax],al
000035A1  0000              add [eax],al
000035A3  0000              add [eax],al
000035A5  0000              add [eax],al
000035A7  0000              add [eax],al
000035A9  0000              add [eax],al
000035AB  0000              add [eax],al
000035AD  0000              add [eax],al
000035AF  0000              add [eax],al
000035B1  0000              add [eax],al
000035B3  0000              add [eax],al
000035B5  0000              add [eax],al
000035B7  0000              add [eax],al
000035B9  0000              add [eax],al
000035BB  0000              add [eax],al
000035BD  0000              add [eax],al
000035BF  0000              add [eax],al
000035C1  0000              add [eax],al
000035C3  0000              add [eax],al
000035C5  0000              add [eax],al
000035C7  0000              add [eax],al
000035C9  0000              add [eax],al
000035CB  0000              add [eax],al
000035CD  0000              add [eax],al
000035CF  0000              add [eax],al
000035D1  0000              add [eax],al
000035D3  0000              add [eax],al
000035D5  0000              add [eax],al
000035D7  0000              add [eax],al
000035D9  0000              add [eax],al
000035DB  0000              add [eax],al
000035DD  0000              add [eax],al
000035DF  0000              add [eax],al
000035E1  0000              add [eax],al
000035E3  0000              add [eax],al
000035E5  0000              add [eax],al
000035E7  0000              add [eax],al
000035E9  0000              add [eax],al
000035EB  0000              add [eax],al
000035ED  0000              add [eax],al
000035EF  0000              add [eax],al
000035F1  0000              add [eax],al
000035F3  0000              add [eax],al
000035F5  0000              add [eax],al
000035F7  0000              add [eax],al
000035F9  0000              add [eax],al
000035FB  0000              add [eax],al
000035FD  0000              add [eax],al
000035FF  0000              add [eax],al
00003601  0000              add [eax],al
00003603  0000              add [eax],al
00003605  0000              add [eax],al
00003607  0000              add [eax],al
00003609  0000              add [eax],al
0000360B  0000              add [eax],al
0000360D  0000              add [eax],al
0000360F  0000              add [eax],al
00003611  0000              add [eax],al
00003613  0000              add [eax],al
00003615  0000              add [eax],al
00003617  0000              add [eax],al
00003619  0000              add [eax],al
0000361B  0000              add [eax],al
0000361D  0000              add [eax],al
0000361F  0000              add [eax],al
00003621  0000              add [eax],al
00003623  0000              add [eax],al
00003625  0000              add [eax],al
00003627  0000              add [eax],al
00003629  0000              add [eax],al
0000362B  0000              add [eax],al
0000362D  0000              add [eax],al
0000362F  0000              add [eax],al
00003631  0000              add [eax],al
00003633  0000              add [eax],al
00003635  0000              add [eax],al
00003637  0000              add [eax],al
00003639  0000              add [eax],al
0000363B  0000              add [eax],al
0000363D  0000              add [eax],al
0000363F  0000              add [eax],al
00003641  0000              add [eax],al
00003643  0000              add [eax],al
00003645  0000              add [eax],al
00003647  0000              add [eax],al
00003649  0000              add [eax],al
0000364B  0000              add [eax],al
0000364D  0000              add [eax],al
0000364F  0000              add [eax],al
00003651  0000              add [eax],al
00003653  0000              add [eax],al
00003655  0000              add [eax],al
00003657  0000              add [eax],al
00003659  0000              add [eax],al
0000365B  0000              add [eax],al
0000365D  0000              add [eax],al
0000365F  0000              add [eax],al
00003661  0000              add [eax],al
00003663  0000              add [eax],al
00003665  0000              add [eax],al
00003667  0000              add [eax],al
00003669  0000              add [eax],al
0000366B  0000              add [eax],al
0000366D  0000              add [eax],al
0000366F  0000              add [eax],al
00003671  0000              add [eax],al
00003673  0000              add [eax],al
00003675  0000              add [eax],al
00003677  0000              add [eax],al
00003679  0000              add [eax],al
0000367B  0000              add [eax],al
0000367D  0000              add [eax],al
0000367F  0000              add [eax],al
00003681  0000              add [eax],al
00003683  0000              add [eax],al
00003685  0000              add [eax],al
00003687  0000              add [eax],al
00003689  0000              add [eax],al
0000368B  0000              add [eax],al
0000368D  0000              add [eax],al
0000368F  0000              add [eax],al
00003691  0000              add [eax],al
00003693  0000              add [eax],al
00003695  0000              add [eax],al
00003697  0000              add [eax],al
00003699  0000              add [eax],al
0000369B  0000              add [eax],al
0000369D  0000              add [eax],al
0000369F  0000              add [eax],al
000036A1  0000              add [eax],al
000036A3  0000              add [eax],al
000036A5  0000              add [eax],al
000036A7  0000              add [eax],al
000036A9  0000              add [eax],al
000036AB  0000              add [eax],al
000036AD  0000              add [eax],al
000036AF  0000              add [eax],al
000036B1  0000              add [eax],al
000036B3  0000              add [eax],al
000036B5  0000              add [eax],al
000036B7  0000              add [eax],al
000036B9  0000              add [eax],al
000036BB  0000              add [eax],al
000036BD  0000              add [eax],al
000036BF  0000              add [eax],al
000036C1  0000              add [eax],al
000036C3  0000              add [eax],al
000036C5  0000              add [eax],al
000036C7  0000              add [eax],al
000036C9  0000              add [eax],al
000036CB  0000              add [eax],al
000036CD  0000              add [eax],al
000036CF  0000              add [eax],al
000036D1  0000              add [eax],al
000036D3  0000              add [eax],al
000036D5  0000              add [eax],al
000036D7  0000              add [eax],al
000036D9  0000              add [eax],al
000036DB  0000              add [eax],al
000036DD  0000              add [eax],al
000036DF  0000              add [eax],al
000036E1  0000              add [eax],al
000036E3  0000              add [eax],al
000036E5  0000              add [eax],al
000036E7  0000              add [eax],al
000036E9  0000              add [eax],al
000036EB  0000              add [eax],al
000036ED  0000              add [eax],al
000036EF  0000              add [eax],al
000036F1  0000              add [eax],al
000036F3  0000              add [eax],al
000036F5  0000              add [eax],al
000036F7  0000              add [eax],al
000036F9  0000              add [eax],al
000036FB  0000              add [eax],al
000036FD  0000              add [eax],al
000036FF  0000              add [eax],al
00003701  0000              add [eax],al
00003703  0000              add [eax],al
00003705  0000              add [eax],al
00003707  0000              add [eax],al
00003709  0000              add [eax],al
0000370B  0000              add [eax],al
0000370D  0000              add [eax],al
0000370F  0000              add [eax],al
00003711  0000              add [eax],al
00003713  0000              add [eax],al
00003715  0000              add [eax],al
00003717  0000              add [eax],al
00003719  0000              add [eax],al
0000371B  0000              add [eax],al
0000371D  0000              add [eax],al
0000371F  0000              add [eax],al
00003721  0000              add [eax],al
00003723  0000              add [eax],al
00003725  0000              add [eax],al
00003727  0000              add [eax],al
00003729  0000              add [eax],al
0000372B  0000              add [eax],al
0000372D  0000              add [eax],al
0000372F  0000              add [eax],al
00003731  0000              add [eax],al
00003733  0000              add [eax],al
00003735  0000              add [eax],al
00003737  0000              add [eax],al
00003739  0000              add [eax],al
0000373B  0000              add [eax],al
0000373D  0000              add [eax],al
0000373F  0000              add [eax],al
00003741  0000              add [eax],al
00003743  0000              add [eax],al
00003745  0000              add [eax],al
00003747  0000              add [eax],al
00003749  0000              add [eax],al
0000374B  0000              add [eax],al
0000374D  0000              add [eax],al
0000374F  0000              add [eax],al
00003751  0000              add [eax],al
00003753  0000              add [eax],al
00003755  0000              add [eax],al
00003757  0000              add [eax],al
00003759  0000              add [eax],al
0000375B  0000              add [eax],al
0000375D  0000              add [eax],al
0000375F  0000              add [eax],al
00003761  0000              add [eax],al
00003763  0000              add [eax],al
00003765  0000              add [eax],al
00003767  0000              add [eax],al
00003769  0000              add [eax],al
0000376B  0000              add [eax],al
0000376D  0000              add [eax],al
0000376F  0000              add [eax],al
00003771  0000              add [eax],al
00003773  0000              add [eax],al
00003775  0000              add [eax],al
00003777  0000              add [eax],al
00003779  0000              add [eax],al
0000377B  0000              add [eax],al
0000377D  0000              add [eax],al
0000377F  0000              add [eax],al
00003781  0000              add [eax],al
00003783  0000              add [eax],al
00003785  0000              add [eax],al
00003787  0000              add [eax],al
00003789  0000              add [eax],al
0000378B  0000              add [eax],al
0000378D  0000              add [eax],al
0000378F  0000              add [eax],al
00003791  0000              add [eax],al
00003793  0000              add [eax],al
00003795  0000              add [eax],al
00003797  0000              add [eax],al
00003799  0000              add [eax],al
0000379B  0000              add [eax],al
0000379D  0000              add [eax],al
0000379F  0000              add [eax],al
000037A1  0000              add [eax],al
000037A3  0000              add [eax],al
000037A5  0000              add [eax],al
000037A7  0000              add [eax],al
000037A9  0000              add [eax],al
000037AB  0000              add [eax],al
000037AD  0000              add [eax],al
000037AF  0000              add [eax],al
000037B1  0000              add [eax],al
000037B3  0000              add [eax],al
000037B5  0000              add [eax],al
000037B7  0000              add [eax],al
000037B9  0000              add [eax],al
000037BB  0000              add [eax],al
000037BD  0000              add [eax],al
000037BF  0000              add [eax],al
000037C1  0000              add [eax],al
000037C3  0000              add [eax],al
000037C5  0000              add [eax],al
000037C7  0000              add [eax],al
000037C9  0000              add [eax],al
000037CB  0000              add [eax],al
000037CD  0000              add [eax],al
000037CF  0000              add [eax],al
000037D1  0000              add [eax],al
000037D3  0000              add [eax],al
000037D5  0000              add [eax],al
000037D7  0000              add [eax],al
000037D9  0000              add [eax],al
000037DB  0000              add [eax],al
000037DD  0000              add [eax],al
000037DF  0000              add [eax],al
000037E1  0000              add [eax],al
000037E3  0000              add [eax],al
000037E5  0000              add [eax],al
000037E7  0000              add [eax],al
000037E9  0000              add [eax],al
000037EB  0000              add [eax],al
000037ED  0000              add [eax],al
000037EF  0000              add [eax],al
000037F1  0000              add [eax],al
000037F3  0000              add [eax],al
000037F5  0000              add [eax],al
000037F7  0000              add [eax],al
000037F9  0000              add [eax],al
000037FB  0000              add [eax],al
000037FD  0000              add [eax],al
000037FF  0000              add [eax],al
00003801  0000              add [eax],al
00003803  0000              add [eax],al
00003805  0000              add [eax],al
00003807  0000              add [eax],al
00003809  0000              add [eax],al
0000380B  0000              add [eax],al
0000380D  0000              add [eax],al
0000380F  0000              add [eax],al
00003811  0000              add [eax],al
00003813  0000              add [eax],al
00003815  0000              add [eax],al
00003817  0000              add [eax],al
00003819  0000              add [eax],al
0000381B  0000              add [eax],al
0000381D  0000              add [eax],al
0000381F  0000              add [eax],al
00003821  0000              add [eax],al
00003823  0000              add [eax],al
00003825  0000              add [eax],al
00003827  0000              add [eax],al
00003829  0000              add [eax],al
0000382B  0000              add [eax],al
0000382D  0000              add [eax],al
0000382F  0000              add [eax],al
00003831  0000              add [eax],al
00003833  0000              add [eax],al
00003835  0000              add [eax],al
00003837  0000              add [eax],al
00003839  0000              add [eax],al
0000383B  0000              add [eax],al
0000383D  0000              add [eax],al
0000383F  0000              add [eax],al
00003841  0000              add [eax],al
00003843  0000              add [eax],al
00003845  0000              add [eax],al
00003847  0000              add [eax],al
00003849  0000              add [eax],al
0000384B  0000              add [eax],al
0000384D  0000              add [eax],al
0000384F  0000              add [eax],al
00003851  0000              add [eax],al
00003853  0000              add [eax],al
00003855  0000              add [eax],al
00003857  0000              add [eax],al
00003859  0000              add [eax],al
0000385B  0000              add [eax],al
0000385D  0000              add [eax],al
0000385F  0000              add [eax],al
00003861  0000              add [eax],al
00003863  0000              add [eax],al
00003865  0000              add [eax],al
00003867  0000              add [eax],al
00003869  0000              add [eax],al
0000386B  0000              add [eax],al
0000386D  0000              add [eax],al
0000386F  0000              add [eax],al
00003871  0000              add [eax],al
00003873  0000              add [eax],al
00003875  0000              add [eax],al
00003877  0000              add [eax],al
00003879  0000              add [eax],al
0000387B  0000              add [eax],al
0000387D  0000              add [eax],al
0000387F  0000              add [eax],al
00003881  0000              add [eax],al
00003883  0000              add [eax],al
00003885  0000              add [eax],al
00003887  0000              add [eax],al
00003889  0000              add [eax],al
0000388B  0000              add [eax],al
0000388D  0000              add [eax],al
0000388F  0000              add [eax],al
00003891  0000              add [eax],al
00003893  0000              add [eax],al
00003895  0000              add [eax],al
00003897  0000              add [eax],al
00003899  0000              add [eax],al
0000389B  0000              add [eax],al
0000389D  0000              add [eax],al
0000389F  0000              add [eax],al
000038A1  0000              add [eax],al
000038A3  0000              add [eax],al
000038A5  0000              add [eax],al
000038A7  0000              add [eax],al
000038A9  0000              add [eax],al
000038AB  0000              add [eax],al
000038AD  0000              add [eax],al
000038AF  0000              add [eax],al
000038B1  0000              add [eax],al
000038B3  0000              add [eax],al
000038B5  0000              add [eax],al
000038B7  0000              add [eax],al
000038B9  0000              add [eax],al
000038BB  0000              add [eax],al
000038BD  0000              add [eax],al
000038BF  0000              add [eax],al
000038C1  0000              add [eax],al
000038C3  0000              add [eax],al
000038C5  0000              add [eax],al
000038C7  0000              add [eax],al
000038C9  0000              add [eax],al
000038CB  0000              add [eax],al
000038CD  0000              add [eax],al
000038CF  0000              add [eax],al
000038D1  0000              add [eax],al
000038D3  0000              add [eax],al
000038D5  0000              add [eax],al
000038D7  0000              add [eax],al
000038D9  0000              add [eax],al
000038DB  0000              add [eax],al
000038DD  0000              add [eax],al
000038DF  0000              add [eax],al
000038E1  0000              add [eax],al
000038E3  0000              add [eax],al
000038E5  0000              add [eax],al
000038E7  0000              add [eax],al
000038E9  0000              add [eax],al
000038EB  0000              add [eax],al
000038ED  0000              add [eax],al
000038EF  0000              add [eax],al
000038F1  0000              add [eax],al
000038F3  0000              add [eax],al
000038F5  0000              add [eax],al
000038F7  0000              add [eax],al
000038F9  0000              add [eax],al
000038FB  0000              add [eax],al
000038FD  0000              add [eax],al
000038FF  0000              add [eax],al
00003901  0000              add [eax],al
00003903  0000              add [eax],al
00003905  0000              add [eax],al
00003907  0000              add [eax],al
00003909  0000              add [eax],al
0000390B  0000              add [eax],al
0000390D  0000              add [eax],al
0000390F  0000              add [eax],al
00003911  0000              add [eax],al
00003913  0000              add [eax],al
00003915  0000              add [eax],al
00003917  0000              add [eax],al
00003919  0000              add [eax],al
0000391B  0000              add [eax],al
0000391D  0000              add [eax],al
0000391F  0000              add [eax],al
00003921  0000              add [eax],al
00003923  0000              add [eax],al
00003925  0000              add [eax],al
00003927  0000              add [eax],al
00003929  0000              add [eax],al
0000392B  0000              add [eax],al
0000392D  0000              add [eax],al
0000392F  0000              add [eax],al
00003931  0000              add [eax],al
00003933  0000              add [eax],al
00003935  0000              add [eax],al
00003937  0000              add [eax],al
00003939  0000              add [eax],al
0000393B  0000              add [eax],al
0000393D  0000              add [eax],al
0000393F  0000              add [eax],al
00003941  0000              add [eax],al
00003943  0000              add [eax],al
00003945  0000              add [eax],al
00003947  0000              add [eax],al
00003949  0000              add [eax],al
0000394B  0000              add [eax],al
0000394D  0000              add [eax],al
0000394F  0000              add [eax],al
00003951  0000              add [eax],al
00003953  0000              add [eax],al
00003955  0000              add [eax],al
00003957  0000              add [eax],al
00003959  0000              add [eax],al
0000395B  0000              add [eax],al
0000395D  0000              add [eax],al
0000395F  0000              add [eax],al
00003961  0000              add [eax],al
00003963  0000              add [eax],al
00003965  0000              add [eax],al
00003967  0000              add [eax],al
00003969  0000              add [eax],al
0000396B  0000              add [eax],al
0000396D  0000              add [eax],al
0000396F  0000              add [eax],al
00003971  0000              add [eax],al
00003973  0000              add [eax],al
00003975  0000              add [eax],al
00003977  0000              add [eax],al
00003979  0000              add [eax],al
0000397B  0000              add [eax],al
0000397D  0000              add [eax],al
0000397F  0000              add [eax],al
00003981  0000              add [eax],al
00003983  0000              add [eax],al
00003985  0000              add [eax],al
00003987  0000              add [eax],al
00003989  0000              add [eax],al
0000398B  0000              add [eax],al
0000398D  0000              add [eax],al
0000398F  0000              add [eax],al
00003991  0000              add [eax],al
00003993  0000              add [eax],al
00003995  0000              add [eax],al
00003997  0000              add [eax],al
00003999  0000              add [eax],al
0000399B  0000              add [eax],al
0000399D  0000              add [eax],al
0000399F  0000              add [eax],al
000039A1  0000              add [eax],al
000039A3  0000              add [eax],al
000039A5  0000              add [eax],al
000039A7  0000              add [eax],al
000039A9  0000              add [eax],al
000039AB  0000              add [eax],al
000039AD  0000              add [eax],al
000039AF  0000              add [eax],al
000039B1  0000              add [eax],al
000039B3  0000              add [eax],al
000039B5  0000              add [eax],al
000039B7  0000              add [eax],al
000039B9  0000              add [eax],al
000039BB  0000              add [eax],al
000039BD  0000              add [eax],al
000039BF  0000              add [eax],al
000039C1  0000              add [eax],al
000039C3  0000              add [eax],al
000039C5  0000              add [eax],al
000039C7  0000              add [eax],al
000039C9  0000              add [eax],al
000039CB  0000              add [eax],al
000039CD  0000              add [eax],al
000039CF  0000              add [eax],al
000039D1  0000              add [eax],al
000039D3  0000              add [eax],al
000039D5  0000              add [eax],al
000039D7  0000              add [eax],al
000039D9  0000              add [eax],al
000039DB  0000              add [eax],al
000039DD  0000              add [eax],al
000039DF  0000              add [eax],al
000039E1  0000              add [eax],al
000039E3  0000              add [eax],al
000039E5  0000              add [eax],al
000039E7  0000              add [eax],al
000039E9  0000              add [eax],al
000039EB  0000              add [eax],al
000039ED  0000              add [eax],al
000039EF  0000              add [eax],al
000039F1  0000              add [eax],al
000039F3  0000              add [eax],al
000039F5  0000              add [eax],al
000039F7  0000              add [eax],al
000039F9  0000              add [eax],al
000039FB  0000              add [eax],al
000039FD  0000              add [eax],al
000039FF  0000              add [eax],al
00003A01  0000              add [eax],al
00003A03  0000              add [eax],al
00003A05  0000              add [eax],al
00003A07  0000              add [eax],al
00003A09  0000              add [eax],al
00003A0B  0000              add [eax],al
00003A0D  0000              add [eax],al
00003A0F  0000              add [eax],al
00003A11  0000              add [eax],al
00003A13  0000              add [eax],al
00003A15  0000              add [eax],al
00003A17  0000              add [eax],al
00003A19  0000              add [eax],al
00003A1B  0000              add [eax],al
00003A1D  0000              add [eax],al
00003A1F  0000              add [eax],al
00003A21  0000              add [eax],al
00003A23  0000              add [eax],al
00003A25  0000              add [eax],al
00003A27  0000              add [eax],al
00003A29  0000              add [eax],al
00003A2B  0000              add [eax],al
00003A2D  0000              add [eax],al
00003A2F  0000              add [eax],al
00003A31  0000              add [eax],al
00003A33  0000              add [eax],al
00003A35  0000              add [eax],al
00003A37  0000              add [eax],al
00003A39  0000              add [eax],al
00003A3B  0000              add [eax],al
00003A3D  0000              add [eax],al
00003A3F  0000              add [eax],al
00003A41  0000              add [eax],al
00003A43  0000              add [eax],al
00003A45  0000              add [eax],al
00003A47  0000              add [eax],al
00003A49  0000              add [eax],al
00003A4B  0000              add [eax],al
00003A4D  0000              add [eax],al
00003A4F  0000              add [eax],al
00003A51  0000              add [eax],al
00003A53  0000              add [eax],al
00003A55  0000              add [eax],al
00003A57  0000              add [eax],al
00003A59  0000              add [eax],al
00003A5B  0000              add [eax],al
00003A5D  0000              add [eax],al
00003A5F  0000              add [eax],al
00003A61  0000              add [eax],al
00003A63  0000              add [eax],al
00003A65  0000              add [eax],al
00003A67  0000              add [eax],al
00003A69  0000              add [eax],al
00003A6B  0000              add [eax],al
00003A6D  0000              add [eax],al
00003A6F  0000              add [eax],al
00003A71  0000              add [eax],al
00003A73  0000              add [eax],al
00003A75  0000              add [eax],al
00003A77  0000              add [eax],al
00003A79  0000              add [eax],al
00003A7B  0000              add [eax],al
00003A7D  0000              add [eax],al
00003A7F  0000              add [eax],al
00003A81  0000              add [eax],al
00003A83  0000              add [eax],al
00003A85  0000              add [eax],al
00003A87  0000              add [eax],al
00003A89  0000              add [eax],al
00003A8B  0000              add [eax],al
00003A8D  0000              add [eax],al
00003A8F  0000              add [eax],al
00003A91  0000              add [eax],al
00003A93  0000              add [eax],al
00003A95  0000              add [eax],al
00003A97  0000              add [eax],al
00003A99  0000              add [eax],al
00003A9B  0000              add [eax],al
00003A9D  0000              add [eax],al
00003A9F  0000              add [eax],al
00003AA1  0000              add [eax],al
00003AA3  0000              add [eax],al
00003AA5  0000              add [eax],al
00003AA7  0000              add [eax],al
00003AA9  0000              add [eax],al
00003AAB  0000              add [eax],al
00003AAD  0000              add [eax],al
00003AAF  0000              add [eax],al
00003AB1  0000              add [eax],al
00003AB3  0000              add [eax],al
00003AB5  0000              add [eax],al
00003AB7  0000              add [eax],al
00003AB9  0000              add [eax],al
00003ABB  0000              add [eax],al
00003ABD  0000              add [eax],al
00003ABF  0000              add [eax],al
00003AC1  0000              add [eax],al
00003AC3  0000              add [eax],al
00003AC5  0000              add [eax],al
00003AC7  0000              add [eax],al
00003AC9  0000              add [eax],al
00003ACB  0000              add [eax],al
00003ACD  0000              add [eax],al
00003ACF  0000              add [eax],al
00003AD1  0000              add [eax],al
00003AD3  0000              add [eax],al
00003AD5  0000              add [eax],al
00003AD7  0000              add [eax],al
00003AD9  0000              add [eax],al
00003ADB  0000              add [eax],al
00003ADD  0000              add [eax],al
00003ADF  0000              add [eax],al
00003AE1  0000              add [eax],al
00003AE3  0000              add [eax],al
00003AE5  0000              add [eax],al
00003AE7  0000              add [eax],al
00003AE9  0000              add [eax],al
00003AEB  0000              add [eax],al
00003AED  0000              add [eax],al
00003AEF  0000              add [eax],al
00003AF1  0000              add [eax],al
00003AF3  0000              add [eax],al
00003AF5  0000              add [eax],al
00003AF7  0000              add [eax],al
00003AF9  0000              add [eax],al
00003AFB  0000              add [eax],al
00003AFD  0000              add [eax],al
00003AFF  0000              add [eax],al
00003B01  0000              add [eax],al
00003B03  0000              add [eax],al
00003B05  0000              add [eax],al
00003B07  0000              add [eax],al
00003B09  0000              add [eax],al
00003B0B  0000              add [eax],al
00003B0D  0000              add [eax],al
00003B0F  0000              add [eax],al
00003B11  0000              add [eax],al
00003B13  0000              add [eax],al
00003B15  0000              add [eax],al
00003B17  0000              add [eax],al
00003B19  0000              add [eax],al
00003B1B  0000              add [eax],al
00003B1D  0000              add [eax],al
00003B1F  0000              add [eax],al
00003B21  0000              add [eax],al
00003B23  0000              add [eax],al
00003B25  0000              add [eax],al
00003B27  0000              add [eax],al
00003B29  0000              add [eax],al
00003B2B  0000              add [eax],al
00003B2D  0000              add [eax],al
00003B2F  0000              add [eax],al
00003B31  0000              add [eax],al
00003B33  0000              add [eax],al
00003B35  0000              add [eax],al
00003B37  0000              add [eax],al
00003B39  0000              add [eax],al
00003B3B  0000              add [eax],al
00003B3D  0000              add [eax],al
00003B3F  0000              add [eax],al
00003B41  0000              add [eax],al
00003B43  0000              add [eax],al
00003B45  0000              add [eax],al
00003B47  0000              add [eax],al
00003B49  0000              add [eax],al
00003B4B  0000              add [eax],al
00003B4D  0000              add [eax],al
00003B4F  0000              add [eax],al
00003B51  0000              add [eax],al
00003B53  0000              add [eax],al
00003B55  0000              add [eax],al
00003B57  0000              add [eax],al
00003B59  0000              add [eax],al
00003B5B  0000              add [eax],al
00003B5D  0000              add [eax],al
00003B5F  0000              add [eax],al
00003B61  0000              add [eax],al
00003B63  0000              add [eax],al
00003B65  0000              add [eax],al
00003B67  0000              add [eax],al
00003B69  0000              add [eax],al
00003B6B  0000              add [eax],al
00003B6D  0000              add [eax],al
00003B6F  0000              add [eax],al
00003B71  0000              add [eax],al
00003B73  0000              add [eax],al
00003B75  0000              add [eax],al
00003B77  0000              add [eax],al
00003B79  0000              add [eax],al
00003B7B  0000              add [eax],al
00003B7D  0000              add [eax],al
00003B7F  0000              add [eax],al
00003B81  0000              add [eax],al
00003B83  0000              add [eax],al
00003B85  0000              add [eax],al
00003B87  0000              add [eax],al
00003B89  0000              add [eax],al
00003B8B  0000              add [eax],al
00003B8D  0000              add [eax],al
00003B8F  0000              add [eax],al
00003B91  0000              add [eax],al
00003B93  0000              add [eax],al
00003B95  0000              add [eax],al
00003B97  0000              add [eax],al
00003B99  0000              add [eax],al
00003B9B  0000              add [eax],al
00003B9D  0000              add [eax],al
00003B9F  0000              add [eax],al
00003BA1  0000              add [eax],al
00003BA3  0000              add [eax],al
00003BA5  0000              add [eax],al
00003BA7  0000              add [eax],al
00003BA9  0000              add [eax],al
00003BAB  0000              add [eax],al
00003BAD  0000              add [eax],al
00003BAF  0000              add [eax],al
00003BB1  0000              add [eax],al
00003BB3  0000              add [eax],al
00003BB5  0000              add [eax],al
00003BB7  0000              add [eax],al
00003BB9  0000              add [eax],al
00003BBB  0000              add [eax],al
00003BBD  0000              add [eax],al
00003BBF  0000              add [eax],al
00003BC1  0000              add [eax],al
00003BC3  0000              add [eax],al
00003BC5  0000              add [eax],al
00003BC7  0000              add [eax],al
00003BC9  0000              add [eax],al
00003BCB  0000              add [eax],al
00003BCD  0000              add [eax],al
00003BCF  0000              add [eax],al
00003BD1  0000              add [eax],al
00003BD3  0000              add [eax],al
00003BD5  0000              add [eax],al
00003BD7  0000              add [eax],al
00003BD9  0000              add [eax],al
00003BDB  0000              add [eax],al
00003BDD  0000              add [eax],al
00003BDF  0000              add [eax],al
00003BE1  0000              add [eax],al
00003BE3  0000              add [eax],al
00003BE5  0000              add [eax],al
00003BE7  0000              add [eax],al
00003BE9  0000              add [eax],al
00003BEB  0000              add [eax],al
00003BED  0000              add [eax],al
00003BEF  0000              add [eax],al
00003BF1  0000              add [eax],al
00003BF3  0000              add [eax],al
00003BF5  0000              add [eax],al
00003BF7  0000              add [eax],al
00003BF9  0000              add [eax],al
00003BFB  0000              add [eax],al
00003BFD  0000              add [eax],al
00003BFF  0000              add [eax],al
00003C01  0000              add [eax],al
00003C03  0000              add [eax],al
00003C05  0000              add [eax],al
00003C07  0000              add [eax],al
00003C09  0000              add [eax],al
00003C0B  0000              add [eax],al
00003C0D  0000              add [eax],al
00003C0F  0000              add [eax],al
00003C11  0000              add [eax],al
00003C13  0000              add [eax],al
00003C15  0000              add [eax],al
00003C17  0000              add [eax],al
00003C19  0000              add [eax],al
00003C1B  0000              add [eax],al
00003C1D  0000              add [eax],al
00003C1F  0000              add [eax],al
00003C21  0000              add [eax],al
00003C23  0000              add [eax],al
00003C25  0000              add [eax],al
00003C27  0000              add [eax],al
00003C29  0000              add [eax],al
00003C2B  0000              add [eax],al
00003C2D  0000              add [eax],al
00003C2F  0000              add [eax],al
00003C31  0000              add [eax],al
00003C33  0000              add [eax],al
00003C35  0000              add [eax],al
00003C37  0000              add [eax],al
00003C39  0000              add [eax],al
00003C3B  0000              add [eax],al
00003C3D  0000              add [eax],al
00003C3F  0000              add [eax],al
00003C41  0000              add [eax],al
00003C43  0000              add [eax],al
00003C45  0000              add [eax],al
00003C47  0000              add [eax],al
00003C49  0000              add [eax],al
00003C4B  0000              add [eax],al
00003C4D  0000              add [eax],al
00003C4F  0000              add [eax],al
00003C51  0000              add [eax],al
00003C53  0000              add [eax],al
00003C55  0000              add [eax],al
00003C57  0000              add [eax],al
00003C59  0000              add [eax],al
00003C5B  0000              add [eax],al
00003C5D  0000              add [eax],al
00003C5F  0000              add [eax],al
00003C61  0000              add [eax],al
00003C63  0000              add [eax],al
00003C65  0000              add [eax],al
00003C67  0000              add [eax],al
00003C69  0000              add [eax],al
00003C6B  0000              add [eax],al
00003C6D  0000              add [eax],al
00003C6F  0000              add [eax],al
00003C71  0000              add [eax],al
00003C73  0000              add [eax],al
00003C75  0000              add [eax],al
00003C77  0000              add [eax],al
00003C79  0000              add [eax],al
00003C7B  0000              add [eax],al
00003C7D  0000              add [eax],al
00003C7F  0000              add [eax],al
00003C81  0000              add [eax],al
00003C83  0000              add [eax],al
00003C85  0000              add [eax],al
00003C87  0000              add [eax],al
00003C89  0000              add [eax],al
00003C8B  0000              add [eax],al
00003C8D  0000              add [eax],al
00003C8F  0000              add [eax],al
00003C91  0000              add [eax],al
00003C93  0000              add [eax],al
00003C95  0000              add [eax],al
00003C97  0000              add [eax],al
00003C99  0000              add [eax],al
00003C9B  0000              add [eax],al
00003C9D  0000              add [eax],al
00003C9F  0000              add [eax],al
00003CA1  0000              add [eax],al
00003CA3  0000              add [eax],al
00003CA5  0000              add [eax],al
00003CA7  0000              add [eax],al
00003CA9  0000              add [eax],al
00003CAB  0000              add [eax],al
00003CAD  0000              add [eax],al
00003CAF  0000              add [eax],al
00003CB1  0000              add [eax],al
00003CB3  0000              add [eax],al
00003CB5  0000              add [eax],al
00003CB7  0000              add [eax],al
00003CB9  0000              add [eax],al
00003CBB  0000              add [eax],al
00003CBD  0000              add [eax],al
00003CBF  0000              add [eax],al
00003CC1  0000              add [eax],al
00003CC3  0000              add [eax],al
00003CC5  0000              add [eax],al
00003CC7  0000              add [eax],al
00003CC9  0000              add [eax],al
00003CCB  0000              add [eax],al
00003CCD  0000              add [eax],al
00003CCF  0000              add [eax],al
00003CD1  0000              add [eax],al
00003CD3  0000              add [eax],al
00003CD5  0000              add [eax],al
00003CD7  0000              add [eax],al
00003CD9  0000              add [eax],al
00003CDB  0000              add [eax],al
00003CDD  0000              add [eax],al
00003CDF  0000              add [eax],al
00003CE1  0000              add [eax],al
00003CE3  0000              add [eax],al
00003CE5  0000              add [eax],al
00003CE7  0000              add [eax],al
00003CE9  0000              add [eax],al
00003CEB  0000              add [eax],al
00003CED  0000              add [eax],al
00003CEF  0000              add [eax],al
00003CF1  0000              add [eax],al
00003CF3  0000              add [eax],al
00003CF5  0000              add [eax],al
00003CF7  0000              add [eax],al
00003CF9  0000              add [eax],al
00003CFB  0000              add [eax],al
00003CFD  0000              add [eax],al
00003CFF  0000              add [eax],al
00003D01  0000              add [eax],al
00003D03  0000              add [eax],al
00003D05  0000              add [eax],al
00003D07  0000              add [eax],al
00003D09  0000              add [eax],al
00003D0B  0000              add [eax],al
00003D0D  0000              add [eax],al
00003D0F  0000              add [eax],al
00003D11  0000              add [eax],al
00003D13  0000              add [eax],al
00003D15  0000              add [eax],al
00003D17  0000              add [eax],al
00003D19  0000              add [eax],al
00003D1B  0000              add [eax],al
00003D1D  0000              add [eax],al
00003D1F  0000              add [eax],al
00003D21  0000              add [eax],al
00003D23  0000              add [eax],al
00003D25  0000              add [eax],al
00003D27  0000              add [eax],al
00003D29  0000              add [eax],al
00003D2B  0000              add [eax],al
00003D2D  0000              add [eax],al
00003D2F  0000              add [eax],al
00003D31  0000              add [eax],al
00003D33  0000              add [eax],al
00003D35  0000              add [eax],al
00003D37  0000              add [eax],al
00003D39  0000              add [eax],al
00003D3B  0000              add [eax],al
00003D3D  0000              add [eax],al
00003D3F  0000              add [eax],al
00003D41  0000              add [eax],al
00003D43  0000              add [eax],al
00003D45  0000              add [eax],al
00003D47  0000              add [eax],al
00003D49  0000              add [eax],al
00003D4B  0000              add [eax],al
00003D4D  0000              add [eax],al
00003D4F  0000              add [eax],al
00003D51  0000              add [eax],al
00003D53  0000              add [eax],al
00003D55  0000              add [eax],al
00003D57  0000              add [eax],al
00003D59  0000              add [eax],al
00003D5B  0000              add [eax],al
00003D5D  0000              add [eax],al
00003D5F  0000              add [eax],al
00003D61  0000              add [eax],al
00003D63  0000              add [eax],al
00003D65  0000              add [eax],al
00003D67  0000              add [eax],al
00003D69  0000              add [eax],al
00003D6B  0000              add [eax],al
00003D6D  0000              add [eax],al
00003D6F  0000              add [eax],al
00003D71  0000              add [eax],al
00003D73  0000              add [eax],al
00003D75  0000              add [eax],al
00003D77  0000              add [eax],al
00003D79  0000              add [eax],al
00003D7B  0000              add [eax],al
00003D7D  0000              add [eax],al
00003D7F  0000              add [eax],al
00003D81  0000              add [eax],al
00003D83  0000              add [eax],al
00003D85  0000              add [eax],al
00003D87  0000              add [eax],al
00003D89  0000              add [eax],al
00003D8B  0000              add [eax],al
00003D8D  0000              add [eax],al
00003D8F  0000              add [eax],al
00003D91  0000              add [eax],al
00003D93  0000              add [eax],al
00003D95  0000              add [eax],al
00003D97  0000              add [eax],al
00003D99  0000              add [eax],al
00003D9B  0000              add [eax],al
00003D9D  0000              add [eax],al
00003D9F  0000              add [eax],al
00003DA1  0000              add [eax],al
00003DA3  0000              add [eax],al
00003DA5  0000              add [eax],al
00003DA7  0000              add [eax],al
00003DA9  0000              add [eax],al
00003DAB  0000              add [eax],al
00003DAD  0000              add [eax],al
00003DAF  0000              add [eax],al
00003DB1  0000              add [eax],al
00003DB3  0000              add [eax],al
00003DB5  0000              add [eax],al
00003DB7  0000              add [eax],al
00003DB9  0000              add [eax],al
00003DBB  0000              add [eax],al
00003DBD  0000              add [eax],al
00003DBF  0000              add [eax],al
00003DC1  0000              add [eax],al
00003DC3  0000              add [eax],al
00003DC5  0000              add [eax],al
00003DC7  0000              add [eax],al
00003DC9  0000              add [eax],al
00003DCB  0000              add [eax],al
00003DCD  0000              add [eax],al
00003DCF  0000              add [eax],al
00003DD1  0000              add [eax],al
00003DD3  0000              add [eax],al
00003DD5  0000              add [eax],al
00003DD7  0000              add [eax],al
00003DD9  0000              add [eax],al
00003DDB  0000              add [eax],al
00003DDD  0000              add [eax],al
00003DDF  0000              add [eax],al
00003DE1  0000              add [eax],al
00003DE3  0000              add [eax],al
00003DE5  0000              add [eax],al
00003DE7  0000              add [eax],al
00003DE9  0000              add [eax],al
00003DEB  0000              add [eax],al
00003DED  0000              add [eax],al
00003DEF  0000              add [eax],al
00003DF1  0000              add [eax],al
00003DF3  0000              add [eax],al
00003DF5  0000              add [eax],al
00003DF7  0000              add [eax],al
00003DF9  0000              add [eax],al
00003DFB  0000              add [eax],al
00003DFD  0000              add [eax],al
00003DFF  0000              add [eax],al
00003E01  0000              add [eax],al
00003E03  0000              add [eax],al
00003E05  0000              add [eax],al
00003E07  0000              add [eax],al
00003E09  0000              add [eax],al
00003E0B  0000              add [eax],al
00003E0D  0000              add [eax],al
00003E0F  0000              add [eax],al
00003E11  0000              add [eax],al
00003E13  0000              add [eax],al
00003E15  0000              add [eax],al
00003E17  0000              add [eax],al
00003E19  0000              add [eax],al
00003E1B  0000              add [eax],al
00003E1D  0000              add [eax],al
00003E1F  0000              add [eax],al
00003E21  0000              add [eax],al
00003E23  0000              add [eax],al
00003E25  0000              add [eax],al
00003E27  0000              add [eax],al
00003E29  0000              add [eax],al
00003E2B  0000              add [eax],al
00003E2D  0000              add [eax],al
00003E2F  0000              add [eax],al
00003E31  0000              add [eax],al
00003E33  0000              add [eax],al
00003E35  0000              add [eax],al
00003E37  0000              add [eax],al
00003E39  0000              add [eax],al
00003E3B  0000              add [eax],al
00003E3D  0000              add [eax],al
00003E3F  0000              add [eax],al
00003E41  0000              add [eax],al
00003E43  0000              add [eax],al
00003E45  0000              add [eax],al
00003E47  0000              add [eax],al
00003E49  0000              add [eax],al
00003E4B  0000              add [eax],al
00003E4D  0000              add [eax],al
00003E4F  0000              add [eax],al
00003E51  0000              add [eax],al
00003E53  0000              add [eax],al
00003E55  0000              add [eax],al
00003E57  0000              add [eax],al
00003E59  0000              add [eax],al
00003E5B  0000              add [eax],al
00003E5D  0000              add [eax],al
00003E5F  0000              add [eax],al
00003E61  0000              add [eax],al
00003E63  0000              add [eax],al
00003E65  0000              add [eax],al
00003E67  0000              add [eax],al
00003E69  0000              add [eax],al
00003E6B  0000              add [eax],al
00003E6D  0000              add [eax],al
00003E6F  0000              add [eax],al
00003E71  0000              add [eax],al
00003E73  0000              add [eax],al
00003E75  0000              add [eax],al
00003E77  0000              add [eax],al
00003E79  0000              add [eax],al
00003E7B  0000              add [eax],al
00003E7D  0000              add [eax],al
00003E7F  0000              add [eax],al
00003E81  0000              add [eax],al
00003E83  0000              add [eax],al
00003E85  0000              add [eax],al
00003E87  0000              add [eax],al
00003E89  0000              add [eax],al
00003E8B  0000              add [eax],al
00003E8D  0000              add [eax],al
00003E8F  0000              add [eax],al
00003E91  0000              add [eax],al
00003E93  0000              add [eax],al
00003E95  0000              add [eax],al
00003E97  0000              add [eax],al
00003E99  0000              add [eax],al
00003E9B  0000              add [eax],al
00003E9D  0000              add [eax],al
00003E9F  0000              add [eax],al
00003EA1  0000              add [eax],al
00003EA3  0000              add [eax],al
00003EA5  0000              add [eax],al
00003EA7  0000              add [eax],al
00003EA9  0000              add [eax],al
00003EAB  0000              add [eax],al
00003EAD  0000              add [eax],al
00003EAF  0000              add [eax],al
00003EB1  0000              add [eax],al
00003EB3  0000              add [eax],al
00003EB5  0000              add [eax],al
00003EB7  0000              add [eax],al
00003EB9  0000              add [eax],al
00003EBB  0000              add [eax],al
00003EBD  0000              add [eax],al
00003EBF  0000              add [eax],al
00003EC1  0000              add [eax],al
00003EC3  0000              add [eax],al
00003EC5  0000              add [eax],al
00003EC7  0000              add [eax],al
00003EC9  0000              add [eax],al
00003ECB  0000              add [eax],al
00003ECD  0000              add [eax],al
00003ECF  0000              add [eax],al
00003ED1  0000              add [eax],al
00003ED3  0000              add [eax],al
00003ED5  0000              add [eax],al
00003ED7  0000              add [eax],al
00003ED9  0000              add [eax],al
00003EDB  0000              add [eax],al
00003EDD  0000              add [eax],al
00003EDF  0000              add [eax],al
00003EE1  0000              add [eax],al
00003EE3  0000              add [eax],al
00003EE5  0000              add [eax],al
00003EE7  0000              add [eax],al
00003EE9  0000              add [eax],al
00003EEB  0000              add [eax],al
00003EED  0000              add [eax],al
00003EEF  0000              add [eax],al
00003EF1  0000              add [eax],al
00003EF3  0000              add [eax],al
00003EF5  0000              add [eax],al
00003EF7  0000              add [eax],al
00003EF9  0000              add [eax],al
00003EFB  0000              add [eax],al
00003EFD  0000              add [eax],al
00003EFF  0000              add [eax],al
00003F01  0000              add [eax],al
00003F03  0000              add [eax],al
00003F05  0000              add [eax],al
00003F07  0000              add [eax],al
00003F09  0000              add [eax],al
00003F0B  0000              add [eax],al
00003F0D  0000              add [eax],al
00003F0F  0000              add [eax],al
00003F11  0000              add [eax],al
00003F13  0000              add [eax],al
00003F15  0000              add [eax],al
00003F17  0000              add [eax],al
00003F19  0000              add [eax],al
00003F1B  0000              add [eax],al
00003F1D  0000              add [eax],al
00003F1F  0000              add [eax],al
00003F21  0000              add [eax],al
00003F23  0000              add [eax],al
00003F25  0000              add [eax],al
00003F27  0000              add [eax],al
00003F29  0000              add [eax],al
00003F2B  0000              add [eax],al
00003F2D  0000              add [eax],al
00003F2F  0000              add [eax],al
00003F31  0000              add [eax],al
00003F33  0000              add [eax],al
00003F35  0000              add [eax],al
00003F37  0000              add [eax],al
00003F39  0000              add [eax],al
00003F3B  0000              add [eax],al
00003F3D  0000              add [eax],al
00003F3F  0000              add [eax],al
00003F41  0000              add [eax],al
00003F43  0000              add [eax],al
00003F45  0000              add [eax],al
00003F47  0000              add [eax],al
00003F49  0000              add [eax],al
00003F4B  0000              add [eax],al
00003F4D  0000              add [eax],al
00003F4F  0000              add [eax],al
00003F51  0000              add [eax],al
00003F53  0000              add [eax],al
00003F55  0000              add [eax],al
00003F57  0000              add [eax],al
00003F59  0000              add [eax],al
00003F5B  0000              add [eax],al
00003F5D  0000              add [eax],al
00003F5F  0000              add [eax],al
00003F61  0000              add [eax],al
00003F63  0000              add [eax],al
00003F65  0000              add [eax],al
00003F67  0000              add [eax],al
00003F69  0000              add [eax],al
00003F6B  0000              add [eax],al
00003F6D  0000              add [eax],al
00003F6F  0000              add [eax],al
00003F71  0000              add [eax],al
00003F73  0000              add [eax],al
00003F75  0000              add [eax],al
00003F77  0000              add [eax],al
00003F79  0000              add [eax],al
00003F7B  0000              add [eax],al
00003F7D  0000              add [eax],al
00003F7F  0000              add [eax],al
00003F81  0000              add [eax],al
00003F83  0000              add [eax],al
00003F85  0000              add [eax],al
00003F87  0000              add [eax],al
00003F89  0000              add [eax],al
00003F8B  0000              add [eax],al
00003F8D  0000              add [eax],al
00003F8F  0000              add [eax],al
00003F91  0000              add [eax],al
00003F93  0000              add [eax],al
00003F95  0000              add [eax],al
00003F97  0000              add [eax],al
00003F99  0000              add [eax],al
00003F9B  0000              add [eax],al
00003F9D  0000              add [eax],al
00003F9F  0000              add [eax],al
00003FA1  0000              add [eax],al
00003FA3  0000              add [eax],al
00003FA5  0000              add [eax],al
00003FA7  0000              add [eax],al
00003FA9  0000              add [eax],al
00003FAB  0000              add [eax],al
00003FAD  0000              add [eax],al
00003FAF  0000              add [eax],al
00003FB1  0000              add [eax],al
00003FB3  0000              add [eax],al
00003FB5  0000              add [eax],al
00003FB7  0000              add [eax],al
00003FB9  0000              add [eax],al
00003FBB  0000              add [eax],al
00003FBD  0000              add [eax],al
00003FBF  0000              add [eax],al
00003FC1  0000              add [eax],al
00003FC3  0000              add [eax],al
00003FC5  0000              add [eax],al
00003FC7  0000              add [eax],al
00003FC9  0000              add [eax],al
00003FCB  0000              add [eax],al
00003FCD  0000              add [eax],al
00003FCF  0000              add [eax],al
00003FD1  0000              add [eax],al
00003FD3  0000              add [eax],al
00003FD5  0000              add [eax],al
00003FD7  0000              add [eax],al
00003FD9  0000              add [eax],al
00003FDB  0000              add [eax],al
00003FDD  0000              add [eax],al
00003FDF  0000              add [eax],al
00003FE1  0000              add [eax],al
00003FE3  0000              add [eax],al
00003FE5  0000              add [eax],al
00003FE7  0000              add [eax],al
00003FE9  0000              add [eax],al
00003FEB  0000              add [eax],al
00003FED  0000              add [eax],al
00003FEF  0000              add [eax],al
00003FF1  0000              add [eax],al
00003FF3  0000              add [eax],al
00003FF5  0000              add [eax],al
00003FF7  0000              add [eax],al
00003FF9  0000              add [eax],al
00003FFB  0000              add [eax],al
00003FFD  0000              add [eax],al
00003FFF  0000              add [eax],al
00004001  0000              add [eax],al
00004003  0000              add [eax],al
00004005  0000              add [eax],al
00004007  0000              add [eax],al
00004009  0000              add [eax],al
0000400B  0000              add [eax],al
0000400D  0000              add [eax],al
0000400F  0000              add [eax],al
00004011  0000              add [eax],al
00004013  0000              add [eax],al
00004015  0000              add [eax],al
00004017  0000              add [eax],al
00004019  0000              add [eax],al
0000401B  0000              add [eax],al
0000401D  0000              add [eax],al
0000401F  0000              add [eax],al
00004021  0000              add [eax],al
00004023  0000              add [eax],al
00004025  0000              add [eax],al
00004027  0000              add [eax],al
00004029  0000              add [eax],al
0000402B  0000              add [eax],al
0000402D  0000              add [eax],al
0000402F  0000              add [eax],al
00004031  0000              add [eax],al
00004033  0000              add [eax],al
00004035  0000              add [eax],al
00004037  0000              add [eax],al
00004039  0000              add [eax],al
0000403B  0000              add [eax],al
0000403D  0000              add [eax],al
0000403F  0000              add [eax],al
00004041  0000              add [eax],al
00004043  0000              add [eax],al
00004045  0000              add [eax],al
00004047  0000              add [eax],al
00004049  0000              add [eax],al
0000404B  0000              add [eax],al
0000404D  0000              add [eax],al
0000404F  0000              add [eax],al
00004051  0000              add [eax],al
00004053  0000              add [eax],al
00004055  0000              add [eax],al
00004057  0000              add [eax],al
00004059  0000              add [eax],al
0000405B  0000              add [eax],al
0000405D  0000              add [eax],al
0000405F  0000              add [eax],al
00004061  0000              add [eax],al
00004063  0000              add [eax],al
00004065  0000              add [eax],al
00004067  0000              add [eax],al
00004069  0000              add [eax],al
0000406B  0000              add [eax],al
0000406D  0000              add [eax],al
0000406F  0000              add [eax],al
00004071  0000              add [eax],al
00004073  0000              add [eax],al
00004075  0000              add [eax],al
00004077  0000              add [eax],al
00004079  0000              add [eax],al
0000407B  0000              add [eax],al
0000407D  0000              add [eax],al
0000407F  0000              add [eax],al
00004081  0000              add [eax],al
00004083  0000              add [eax],al
00004085  0000              add [eax],al
00004087  0000              add [eax],al
00004089  0000              add [eax],al
0000408B  0000              add [eax],al
0000408D  0000              add [eax],al
0000408F  0000              add [eax],al
00004091  0000              add [eax],al
00004093  0000              add [eax],al
00004095  0000              add [eax],al
00004097  0000              add [eax],al
00004099  0000              add [eax],al
0000409B  0000              add [eax],al
0000409D  0000              add [eax],al
0000409F  0000              add [eax],al
000040A1  0000              add [eax],al
000040A3  0000              add [eax],al
000040A5  0000              add [eax],al
000040A7  0000              add [eax],al
000040A9  0000              add [eax],al
000040AB  0000              add [eax],al
000040AD  0000              add [eax],al
000040AF  0000              add [eax],al
000040B1  0000              add [eax],al
000040B3  0000              add [eax],al
000040B5  0000              add [eax],al
000040B7  0000              add [eax],al
000040B9  0000              add [eax],al
000040BB  0000              add [eax],al
000040BD  0000              add [eax],al
000040BF  0000              add [eax],al
000040C1  0000              add [eax],al
000040C3  0000              add [eax],al
000040C5  0000              add [eax],al
000040C7  0000              add [eax],al
000040C9  0000              add [eax],al
000040CB  0000              add [eax],al
000040CD  0000              add [eax],al
000040CF  0000              add [eax],al
000040D1  0000              add [eax],al
000040D3  0000              add [eax],al
000040D5  0000              add [eax],al
000040D7  0000              add [eax],al
000040D9  0000              add [eax],al
000040DB  0000              add [eax],al
000040DD  0000              add [eax],al
000040DF  0000              add [eax],al
000040E1  0000              add [eax],al
000040E3  0000              add [eax],al
000040E5  0000              add [eax],al
000040E7  0000              add [eax],al
000040E9  0000              add [eax],al
000040EB  0000              add [eax],al
000040ED  0000              add [eax],al
000040EF  0000              add [eax],al
000040F1  0000              add [eax],al
000040F3  0000              add [eax],al
000040F5  0000              add [eax],al
000040F7  0000              add [eax],al
000040F9  0000              add [eax],al
000040FB  0000              add [eax],al
000040FD  0000              add [eax],al
000040FF  0000              add [eax],al
00004101  0000              add [eax],al
00004103  0000              add [eax],al
00004105  0000              add [eax],al
00004107  0000              add [eax],al
00004109  0000              add [eax],al
0000410B  0000              add [eax],al
0000410D  0000              add [eax],al
0000410F  0000              add [eax],al
00004111  0000              add [eax],al
00004113  0000              add [eax],al
00004115  0000              add [eax],al
00004117  0000              add [eax],al
00004119  0000              add [eax],al
0000411B  0000              add [eax],al
0000411D  0000              add [eax],al
0000411F  0000              add [eax],al
00004121  0000              add [eax],al
00004123  0000              add [eax],al
00004125  0000              add [eax],al
00004127  0000              add [eax],al
00004129  0000              add [eax],al
0000412B  0000              add [eax],al
0000412D  0000              add [eax],al
0000412F  0000              add [eax],al
00004131  0000              add [eax],al
00004133  0000              add [eax],al
00004135  0000              add [eax],al
00004137  0000              add [eax],al
00004139  0000              add [eax],al
0000413B  0000              add [eax],al
0000413D  0000              add [eax],al
0000413F  0000              add [eax],al
00004141  0000              add [eax],al
00004143  0000              add [eax],al
00004145  0000              add [eax],al
00004147  0000              add [eax],al
00004149  0000              add [eax],al
0000414B  0000              add [eax],al
0000414D  0000              add [eax],al
0000414F  0000              add [eax],al
00004151  0000              add [eax],al
00004153  0000              add [eax],al
00004155  0000              add [eax],al
00004157  0000              add [eax],al
00004159  0000              add [eax],al
0000415B  0000              add [eax],al
0000415D  0000              add [eax],al
0000415F  0000              add [eax],al
00004161  0000              add [eax],al
00004163  0000              add [eax],al
00004165  0000              add [eax],al
00004167  0000              add [eax],al
00004169  0000              add [eax],al
0000416B  0000              add [eax],al
0000416D  0000              add [eax],al
0000416F  0000              add [eax],al
00004171  0000              add [eax],al
00004173  0000              add [eax],al
00004175  0000              add [eax],al
00004177  0000              add [eax],al
00004179  0000              add [eax],al
0000417B  0000              add [eax],al
0000417D  0000              add [eax],al
0000417F  0000              add [eax],al
00004181  0000              add [eax],al
00004183  0000              add [eax],al
00004185  0000              add [eax],al
00004187  0000              add [eax],al
00004189  0000              add [eax],al
0000418B  0000              add [eax],al
0000418D  0000              add [eax],al
0000418F  0000              add [eax],al
00004191  0000              add [eax],al
00004193  0000              add [eax],al
00004195  0000              add [eax],al
00004197  0000              add [eax],al
00004199  0000              add [eax],al
0000419B  0000              add [eax],al
0000419D  0000              add [eax],al
0000419F  0000              add [eax],al
000041A1  0000              add [eax],al
000041A3  0000              add [eax],al
000041A5  0000              add [eax],al
000041A7  0000              add [eax],al
000041A9  0000              add [eax],al
000041AB  0000              add [eax],al
000041AD  0000              add [eax],al
000041AF  0000              add [eax],al
000041B1  0000              add [eax],al
000041B3  0000              add [eax],al
000041B5  0000              add [eax],al
000041B7  0000              add [eax],al
000041B9  0000              add [eax],al
000041BB  0000              add [eax],al
000041BD  0000              add [eax],al
000041BF  0000              add [eax],al
000041C1  0000              add [eax],al
000041C3  0000              add [eax],al
000041C5  0000              add [eax],al
000041C7  0000              add [eax],al
000041C9  0000              add [eax],al
000041CB  0000              add [eax],al
000041CD  0000              add [eax],al
000041CF  0000              add [eax],al
000041D1  0000              add [eax],al
000041D3  0000              add [eax],al
000041D5  0000              add [eax],al
000041D7  0000              add [eax],al
000041D9  0000              add [eax],al
000041DB  0000              add [eax],al
000041DD  0000              add [eax],al
000041DF  0000              add [eax],al
000041E1  0000              add [eax],al
000041E3  0000              add [eax],al
000041E5  0000              add [eax],al
000041E7  0000              add [eax],al
000041E9  0000              add [eax],al
000041EB  0000              add [eax],al
000041ED  0000              add [eax],al
000041EF  0000              add [eax],al
000041F1  0000              add [eax],al
000041F3  0000              add [eax],al
000041F5  0000              add [eax],al
000041F7  0000              add [eax],al
000041F9  0000              add [eax],al
000041FB  0000              add [eax],al
000041FD  0000              add [eax],al
000041FF  0000              add [eax],al
00004201  0000              add [eax],al
00004203  0000              add [eax],al
00004205  0000              add [eax],al
00004207  0000              add [eax],al
00004209  0000              add [eax],al
0000420B  0000              add [eax],al
0000420D  0000              add [eax],al
0000420F  0000              add [eax],al
00004211  0000              add [eax],al
00004213  0000              add [eax],al
00004215  0000              add [eax],al
00004217  0000              add [eax],al
00004219  0000              add [eax],al
0000421B  0000              add [eax],al
0000421D  0000              add [eax],al
0000421F  0000              add [eax],al
00004221  0000              add [eax],al
00004223  0000              add [eax],al
00004225  0000              add [eax],al
00004227  0000              add [eax],al
00004229  0000              add [eax],al
0000422B  0000              add [eax],al
0000422D  0000              add [eax],al
0000422F  0000              add [eax],al
00004231  0000              add [eax],al
00004233  0000              add [eax],al
00004235  0000              add [eax],al
00004237  0000              add [eax],al
00004239  0000              add [eax],al
0000423B  0000              add [eax],al
0000423D  0000              add [eax],al
0000423F  0000              add [eax],al
00004241  0000              add [eax],al
00004243  0000              add [eax],al
00004245  0000              add [eax],al
00004247  0000              add [eax],al
00004249  0000              add [eax],al
0000424B  0000              add [eax],al
0000424D  0000              add [eax],al
0000424F  0000              add [eax],al
00004251  0000              add [eax],al
00004253  0000              add [eax],al
00004255  0000              add [eax],al
00004257  0000              add [eax],al
00004259  0000              add [eax],al
0000425B  0000              add [eax],al
0000425D  0000              add [eax],al
0000425F  0000              add [eax],al
00004261  0000              add [eax],al
00004263  0000              add [eax],al
00004265  0000              add [eax],al
00004267  0000              add [eax],al
00004269  0000              add [eax],al
0000426B  0000              add [eax],al
0000426D  0000              add [eax],al
0000426F  0000              add [eax],al
00004271  0000              add [eax],al
00004273  0000              add [eax],al
00004275  0000              add [eax],al
00004277  0000              add [eax],al
00004279  0000              add [eax],al
0000427B  0000              add [eax],al
0000427D  0000              add [eax],al
0000427F  0000              add [eax],al
00004281  0000              add [eax],al
00004283  0000              add [eax],al
00004285  0000              add [eax],al
00004287  0000              add [eax],al
00004289  0000              add [eax],al
0000428B  0000              add [eax],al
0000428D  0000              add [eax],al
0000428F  0000              add [eax],al
00004291  0000              add [eax],al
00004293  0000              add [eax],al
00004295  0000              add [eax],al
00004297  0000              add [eax],al
00004299  0000              add [eax],al
0000429B  0000              add [eax],al
0000429D  0000              add [eax],al
0000429F  0000              add [eax],al
000042A1  0000              add [eax],al
000042A3  0000              add [eax],al
000042A5  0000              add [eax],al
000042A7  0000              add [eax],al
000042A9  0000              add [eax],al
000042AB  0000              add [eax],al
000042AD  0000              add [eax],al
000042AF  0000              add [eax],al
000042B1  0000              add [eax],al
000042B3  0000              add [eax],al
000042B5  0000              add [eax],al
000042B7  0000              add [eax],al
000042B9  0000              add [eax],al
000042BB  0000              add [eax],al
000042BD  0000              add [eax],al
000042BF  0000              add [eax],al
000042C1  0000              add [eax],al
000042C3  0000              add [eax],al
000042C5  0000              add [eax],al
000042C7  0000              add [eax],al
000042C9  0000              add [eax],al
000042CB  0000              add [eax],al
000042CD  0000              add [eax],al
000042CF  0000              add [eax],al
000042D1  0000              add [eax],al
000042D3  0000              add [eax],al
000042D5  0000              add [eax],al
000042D7  0000              add [eax],al
000042D9  0000              add [eax],al
000042DB  0000              add [eax],al
000042DD  0000              add [eax],al
000042DF  0000              add [eax],al
000042E1  0000              add [eax],al
000042E3  0000              add [eax],al
000042E5  0000              add [eax],al
000042E7  0000              add [eax],al
000042E9  0000              add [eax],al
000042EB  0000              add [eax],al
000042ED  0000              add [eax],al
000042EF  0000              add [eax],al
000042F1  0000              add [eax],al
000042F3  0000              add [eax],al
000042F5  0000              add [eax],al
000042F7  0000              add [eax],al
000042F9  0000              add [eax],al
000042FB  0000              add [eax],al
000042FD  0000              add [eax],al
000042FF  0000              add [eax],al
00004301  0000              add [eax],al
00004303  0000              add [eax],al
00004305  0000              add [eax],al
00004307  0000              add [eax],al
00004309  0000              add [eax],al
0000430B  0000              add [eax],al
0000430D  0000              add [eax],al
0000430F  0000              add [eax],al
00004311  0000              add [eax],al
00004313  0000              add [eax],al
00004315  0000              add [eax],al
00004317  0000              add [eax],al
00004319  0000              add [eax],al
0000431B  0000              add [eax],al
0000431D  0000              add [eax],al
0000431F  0000              add [eax],al
00004321  0000              add [eax],al
00004323  0000              add [eax],al
00004325  0000              add [eax],al
00004327  0000              add [eax],al
00004329  0000              add [eax],al
0000432B  0000              add [eax],al
0000432D  0000              add [eax],al
0000432F  0000              add [eax],al
00004331  0000              add [eax],al
00004333  0000              add [eax],al
00004335  0000              add [eax],al
00004337  0000              add [eax],al
00004339  0000              add [eax],al
0000433B  0000              add [eax],al
0000433D  0000              add [eax],al
0000433F  0000              add [eax],al
00004341  0000              add [eax],al
00004343  0000              add [eax],al
00004345  0000              add [eax],al
00004347  0000              add [eax],al
00004349  0000              add [eax],al
0000434B  0000              add [eax],al
0000434D  0000              add [eax],al
0000434F  0000              add [eax],al
00004351  0000              add [eax],al
00004353  0000              add [eax],al
00004355  0000              add [eax],al
00004357  0000              add [eax],al
00004359  0000              add [eax],al
0000435B  0000              add [eax],al
0000435D  0000              add [eax],al
0000435F  0000              add [eax],al
00004361  0000              add [eax],al
00004363  0000              add [eax],al
00004365  0000              add [eax],al
00004367  0000              add [eax],al
00004369  0000              add [eax],al
0000436B  0000              add [eax],al
0000436D  0000              add [eax],al
0000436F  0000              add [eax],al
00004371  0000              add [eax],al
00004373  0000              add [eax],al
00004375  0000              add [eax],al
00004377  0000              add [eax],al
00004379  0000              add [eax],al
0000437B  0000              add [eax],al
0000437D  0000              add [eax],al
0000437F  0000              add [eax],al
00004381  0000              add [eax],al
00004383  0000              add [eax],al
00004385  0000              add [eax],al
00004387  0000              add [eax],al
00004389  0000              add [eax],al
0000438B  0000              add [eax],al
0000438D  0000              add [eax],al
0000438F  0000              add [eax],al
00004391  0000              add [eax],al
00004393  0000              add [eax],al
00004395  0000              add [eax],al
00004397  0000              add [eax],al
00004399  0000              add [eax],al
0000439B  0000              add [eax],al
0000439D  0000              add [eax],al
0000439F  0000              add [eax],al
000043A1  0000              add [eax],al
000043A3  0000              add [eax],al
000043A5  0000              add [eax],al
000043A7  0000              add [eax],al
000043A9  0000              add [eax],al
000043AB  0000              add [eax],al
000043AD  0000              add [eax],al
000043AF  0000              add [eax],al
000043B1  0000              add [eax],al
000043B3  0000              add [eax],al
000043B5  0000              add [eax],al
000043B7  0000              add [eax],al
000043B9  0000              add [eax],al
000043BB  0000              add [eax],al
000043BD  0000              add [eax],al
000043BF  0000              add [eax],al
000043C1  0000              add [eax],al
000043C3  0000              add [eax],al
000043C5  0000              add [eax],al
000043C7  0000              add [eax],al
000043C9  0000              add [eax],al
000043CB  0000              add [eax],al
000043CD  0000              add [eax],al
000043CF  0000              add [eax],al
000043D1  0000              add [eax],al
000043D3  0000              add [eax],al
000043D5  0000              add [eax],al
000043D7  0000              add [eax],al
000043D9  0000              add [eax],al
000043DB  0000              add [eax],al
000043DD  0000              add [eax],al
000043DF  0000              add [eax],al
000043E1  0000              add [eax],al
000043E3  0000              add [eax],al
000043E5  0000              add [eax],al
000043E7  0000              add [eax],al
000043E9  0000              add [eax],al
000043EB  0000              add [eax],al
000043ED  0000              add [eax],al
000043EF  0000              add [eax],al
000043F1  0000              add [eax],al
000043F3  0000              add [eax],al
000043F5  0000              add [eax],al
000043F7  0000              add [eax],al
000043F9  0000              add [eax],al
000043FB  0000              add [eax],al
000043FD  0000              add [eax],al
000043FF  0000              add [eax],al
00004401  0000              add [eax],al
00004403  0000              add [eax],al
00004405  0000              add [eax],al
00004407  0000              add [eax],al
00004409  0000              add [eax],al
0000440B  0000              add [eax],al
0000440D  0000              add [eax],al
0000440F  0000              add [eax],al
00004411  0000              add [eax],al
00004413  0000              add [eax],al
00004415  0000              add [eax],al
00004417  0000              add [eax],al
00004419  0000              add [eax],al
0000441B  0000              add [eax],al
0000441D  0000              add [eax],al
0000441F  0000              add [eax],al
00004421  0000              add [eax],al
00004423  0000              add [eax],al
00004425  0000              add [eax],al
00004427  0000              add [eax],al
00004429  0000              add [eax],al
0000442B  0000              add [eax],al
0000442D  0000              add [eax],al
0000442F  0000              add [eax],al
00004431  0000              add [eax],al
00004433  0000              add [eax],al
00004435  0000              add [eax],al
00004437  0000              add [eax],al
00004439  0000              add [eax],al
0000443B  0000              add [eax],al
0000443D  0000              add [eax],al
0000443F  0000              add [eax],al
00004441  0000              add [eax],al
00004443  0000              add [eax],al
00004445  0000              add [eax],al
00004447  0000              add [eax],al
00004449  0000              add [eax],al
0000444B  0000              add [eax],al
0000444D  0000              add [eax],al
0000444F  0000              add [eax],al
00004451  0000              add [eax],al
00004453  0000              add [eax],al
00004455  0000              add [eax],al
00004457  0000              add [eax],al
00004459  0000              add [eax],al
0000445B  0000              add [eax],al
0000445D  0000              add [eax],al
0000445F  0000              add [eax],al
00004461  0000              add [eax],al
00004463  0000              add [eax],al
00004465  0000              add [eax],al
00004467  0000              add [eax],al
00004469  0000              add [eax],al
0000446B  0000              add [eax],al
0000446D  0000              add [eax],al
0000446F  0000              add [eax],al
00004471  0000              add [eax],al
00004473  0000              add [eax],al
00004475  0000              add [eax],al
00004477  0000              add [eax],al
00004479  0000              add [eax],al
0000447B  0000              add [eax],al
0000447D  0000              add [eax],al
0000447F  0000              add [eax],al
00004481  0000              add [eax],al
00004483  0000              add [eax],al
00004485  0000              add [eax],al
00004487  0000              add [eax],al
00004489  0000              add [eax],al
0000448B  0000              add [eax],al
0000448D  0000              add [eax],al
0000448F  0000              add [eax],al
00004491  0000              add [eax],al
00004493  0000              add [eax],al
00004495  0000              add [eax],al
00004497  0000              add [eax],al
00004499  0000              add [eax],al
0000449B  0000              add [eax],al
0000449D  0000              add [eax],al
0000449F  0000              add [eax],al
000044A1  0000              add [eax],al
000044A3  0000              add [eax],al
000044A5  0000              add [eax],al
000044A7  0000              add [eax],al
000044A9  0000              add [eax],al
000044AB  0000              add [eax],al
000044AD  0000              add [eax],al
000044AF  0000              add [eax],al
000044B1  0000              add [eax],al
000044B3  0000              add [eax],al
000044B5  0000              add [eax],al
000044B7  0000              add [eax],al
000044B9  0000              add [eax],al
000044BB  0000              add [eax],al
000044BD  0000              add [eax],al
000044BF  0000              add [eax],al
000044C1  0000              add [eax],al
000044C3  0000              add [eax],al
000044C5  0000              add [eax],al
000044C7  0000              add [eax],al
000044C9  0000              add [eax],al
000044CB  0000              add [eax],al
000044CD  0000              add [eax],al
000044CF  0000              add [eax],al
000044D1  0000              add [eax],al
000044D3  0000              add [eax],al
000044D5  0000              add [eax],al
000044D7  0000              add [eax],al
000044D9  0000              add [eax],al
000044DB  0000              add [eax],al
000044DD  0000              add [eax],al
000044DF  0000              add [eax],al
000044E1  0000              add [eax],al
000044E3  0000              add [eax],al
000044E5  0000              add [eax],al
000044E7  0000              add [eax],al
000044E9  0000              add [eax],al
000044EB  0000              add [eax],al
000044ED  0000              add [eax],al
000044EF  0000              add [eax],al
000044F1  0000              add [eax],al
000044F3  0000              add [eax],al
000044F5  0000              add [eax],al
000044F7  0000              add [eax],al
000044F9  0000              add [eax],al
000044FB  0000              add [eax],al
000044FD  0000              add [eax],al
000044FF  0000              add [eax],al
00004501  0000              add [eax],al
00004503  0000              add [eax],al
00004505  0000              add [eax],al
00004507  0000              add [eax],al
00004509  0000              add [eax],al
0000450B  0000              add [eax],al
0000450D  0000              add [eax],al
0000450F  0000              add [eax],al
00004511  0000              add [eax],al
00004513  0000              add [eax],al
00004515  0000              add [eax],al
00004517  0000              add [eax],al
00004519  0000              add [eax],al
0000451B  0000              add [eax],al
0000451D  0000              add [eax],al
0000451F  0000              add [eax],al
00004521  0000              add [eax],al
00004523  0000              add [eax],al
00004525  0000              add [eax],al
00004527  0000              add [eax],al
00004529  0000              add [eax],al
0000452B  0000              add [eax],al
0000452D  0000              add [eax],al
0000452F  0000              add [eax],al
00004531  0000              add [eax],al
00004533  0000              add [eax],al
00004535  0000              add [eax],al
00004537  0000              add [eax],al
00004539  0000              add [eax],al
0000453B  0000              add [eax],al
0000453D  0000              add [eax],al
0000453F  0000              add [eax],al
00004541  0000              add [eax],al
00004543  0000              add [eax],al
00004545  0000              add [eax],al
00004547  0000              add [eax],al
00004549  0000              add [eax],al
0000454B  0000              add [eax],al
0000454D  0000              add [eax],al
0000454F  0000              add [eax],al
00004551  0000              add [eax],al
00004553  0000              add [eax],al
00004555  0000              add [eax],al
00004557  0000              add [eax],al
00004559  0000              add [eax],al
0000455B  0000              add [eax],al
0000455D  0000              add [eax],al
0000455F  0000              add [eax],al
00004561  0000              add [eax],al
00004563  0000              add [eax],al
00004565  0000              add [eax],al
00004567  0000              add [eax],al
00004569  0000              add [eax],al
0000456B  0000              add [eax],al
0000456D  0000              add [eax],al
0000456F  0000              add [eax],al
00004571  0000              add [eax],al
00004573  0000              add [eax],al
00004575  0000              add [eax],al
00004577  0000              add [eax],al
00004579  0000              add [eax],al
0000457B  0000              add [eax],al
0000457D  0000              add [eax],al
0000457F  0000              add [eax],al
00004581  0000              add [eax],al
00004583  0000              add [eax],al
00004585  0000              add [eax],al
00004587  0000              add [eax],al
00004589  0000              add [eax],al
0000458B  0000              add [eax],al
0000458D  0000              add [eax],al
0000458F  0000              add [eax],al
00004591  0000              add [eax],al
00004593  0000              add [eax],al
00004595  0000              add [eax],al
00004597  0000              add [eax],al
00004599  0000              add [eax],al
0000459B  0000              add [eax],al
0000459D  0000              add [eax],al
0000459F  0000              add [eax],al
000045A1  0000              add [eax],al
000045A3  0000              add [eax],al
000045A5  0000              add [eax],al
000045A7  0000              add [eax],al
000045A9  0000              add [eax],al
000045AB  0000              add [eax],al
000045AD  0000              add [eax],al
000045AF  0000              add [eax],al
000045B1  0000              add [eax],al
000045B3  0000              add [eax],al
000045B5  0000              add [eax],al
000045B7  0000              add [eax],al
000045B9  0000              add [eax],al
000045BB  0000              add [eax],al
000045BD  0000              add [eax],al
000045BF  0000              add [eax],al
000045C1  0000              add [eax],al
000045C3  0000              add [eax],al
000045C5  0000              add [eax],al
000045C7  0000              add [eax],al
000045C9  0000              add [eax],al
000045CB  0000              add [eax],al
000045CD  0000              add [eax],al
000045CF  0000              add [eax],al
000045D1  0000              add [eax],al
000045D3  0000              add [eax],al
000045D5  0000              add [eax],al
000045D7  0000              add [eax],al
000045D9  0000              add [eax],al
000045DB  0000              add [eax],al
000045DD  0000              add [eax],al
000045DF  0000              add [eax],al
000045E1  0000              add [eax],al
000045E3  0000              add [eax],al
000045E5  0000              add [eax],al
000045E7  0000              add [eax],al
000045E9  0000              add [eax],al
000045EB  0000              add [eax],al
000045ED  0000              add [eax],al
000045EF  0000              add [eax],al
000045F1  0000              add [eax],al
000045F3  0000              add [eax],al
000045F5  0000              add [eax],al
000045F7  0000              add [eax],al
000045F9  0000              add [eax],al
000045FB  0000              add [eax],al
000045FD  0000              add [eax],al
000045FF  0000              add [eax],al
00004601  0000              add [eax],al
00004603  0000              add [eax],al
00004605  0000              add [eax],al
00004607  0000              add [eax],al
00004609  0000              add [eax],al
0000460B  0000              add [eax],al
0000460D  0000              add [eax],al
0000460F  0000              add [eax],al
00004611  0000              add [eax],al
00004613  0000              add [eax],al
00004615  0000              add [eax],al
00004617  0000              add [eax],al
00004619  0000              add [eax],al
0000461B  0000              add [eax],al
0000461D  0000              add [eax],al
0000461F  0000              add [eax],al
00004621  0000              add [eax],al
00004623  0000              add [eax],al
00004625  0000              add [eax],al
00004627  0000              add [eax],al
00004629  0000              add [eax],al
0000462B  0000              add [eax],al
0000462D  0000              add [eax],al
0000462F  0000              add [eax],al
00004631  0000              add [eax],al
00004633  0000              add [eax],al
00004635  0000              add [eax],al
00004637  0000              add [eax],al
00004639  0000              add [eax],al
0000463B  0000              add [eax],al
0000463D  0000              add [eax],al
0000463F  0000              add [eax],al
00004641  0000              add [eax],al
00004643  0000              add [eax],al
00004645  0000              add [eax],al
00004647  0000              add [eax],al
00004649  0000              add [eax],al
0000464B  0000              add [eax],al
0000464D  0000              add [eax],al
0000464F  0000              add [eax],al
00004651  0000              add [eax],al
00004653  0000              add [eax],al
00004655  0000              add [eax],al
00004657  0000              add [eax],al
00004659  0000              add [eax],al
0000465B  0000              add [eax],al
0000465D  0000              add [eax],al
0000465F  0000              add [eax],al
00004661  0000              add [eax],al
00004663  0000              add [eax],al
00004665  0000              add [eax],al
00004667  0000              add [eax],al
00004669  0000              add [eax],al
0000466B  0000              add [eax],al
0000466D  0000              add [eax],al
0000466F  0000              add [eax],al
00004671  0000              add [eax],al
00004673  0000              add [eax],al
00004675  0000              add [eax],al
00004677  0000              add [eax],al
00004679  0000              add [eax],al
0000467B  0000              add [eax],al
0000467D  0000              add [eax],al
0000467F  0000              add [eax],al
00004681  0000              add [eax],al
00004683  0000              add [eax],al
00004685  0000              add [eax],al
00004687  0000              add [eax],al
00004689  0000              add [eax],al
0000468B  0000              add [eax],al
0000468D  0000              add [eax],al
0000468F  0000              add [eax],al
00004691  0000              add [eax],al
00004693  0000              add [eax],al
00004695  0000              add [eax],al
00004697  0000              add [eax],al
00004699  0000              add [eax],al
0000469B  0000              add [eax],al
0000469D  0000              add [eax],al
0000469F  0000              add [eax],al
000046A1  0000              add [eax],al
000046A3  0000              add [eax],al
000046A5  0000              add [eax],al
000046A7  0000              add [eax],al
000046A9  0000              add [eax],al
000046AB  0000              add [eax],al
000046AD  0000              add [eax],al
000046AF  0000              add [eax],al
000046B1  0000              add [eax],al
000046B3  0000              add [eax],al
000046B5  0000              add [eax],al
000046B7  0000              add [eax],al
000046B9  0000              add [eax],al
000046BB  0000              add [eax],al
000046BD  0000              add [eax],al
000046BF  0000              add [eax],al
000046C1  0000              add [eax],al
000046C3  0000              add [eax],al
000046C5  0000              add [eax],al
000046C7  0000              add [eax],al
000046C9  0000              add [eax],al
000046CB  0000              add [eax],al
000046CD  0000              add [eax],al
000046CF  0000              add [eax],al
000046D1  0000              add [eax],al
000046D3  0000              add [eax],al
000046D5  0000              add [eax],al
000046D7  0000              add [eax],al
000046D9  0000              add [eax],al
000046DB  0000              add [eax],al
000046DD  0000              add [eax],al
000046DF  0000              add [eax],al
000046E1  0000              add [eax],al
000046E3  0000              add [eax],al
000046E5  0000              add [eax],al
000046E7  0000              add [eax],al
000046E9  0000              add [eax],al
000046EB  0000              add [eax],al
000046ED  0000              add [eax],al
000046EF  0000              add [eax],al
000046F1  0000              add [eax],al
000046F3  0000              add [eax],al
000046F5  0000              add [eax],al
000046F7  0000              add [eax],al
000046F9  0000              add [eax],al
000046FB  0000              add [eax],al
000046FD  0000              add [eax],al
000046FF  0000              add [eax],al
00004701  0000              add [eax],al
00004703  0000              add [eax],al
00004705  0000              add [eax],al
00004707  0000              add [eax],al
00004709  0000              add [eax],al
0000470B  0000              add [eax],al
0000470D  0000              add [eax],al
0000470F  0000              add [eax],al
00004711  0000              add [eax],al
00004713  0000              add [eax],al
00004715  0000              add [eax],al
00004717  0000              add [eax],al
00004719  0000              add [eax],al
0000471B  0000              add [eax],al
0000471D  0000              add [eax],al
0000471F  0000              add [eax],al
00004721  0000              add [eax],al
00004723  0000              add [eax],al
00004725  0000              add [eax],al
00004727  0000              add [eax],al
00004729  0000              add [eax],al
0000472B  0000              add [eax],al
0000472D  0000              add [eax],al
0000472F  0000              add [eax],al
00004731  0000              add [eax],al
00004733  0000              add [eax],al
00004735  0000              add [eax],al
00004737  0000              add [eax],al
00004739  0000              add [eax],al
0000473B  0000              add [eax],al
0000473D  0000              add [eax],al
0000473F  0000              add [eax],al
00004741  0000              add [eax],al
00004743  0000              add [eax],al
00004745  0000              add [eax],al
00004747  0000              add [eax],al
00004749  0000              add [eax],al
0000474B  0000              add [eax],al
0000474D  0000              add [eax],al
0000474F  0000              add [eax],al
00004751  0000              add [eax],al
00004753  0000              add [eax],al
00004755  0000              add [eax],al
00004757  0000              add [eax],al
00004759  0000              add [eax],al
0000475B  0000              add [eax],al
0000475D  0000              add [eax],al
0000475F  0000              add [eax],al
00004761  0000              add [eax],al
00004763  0000              add [eax],al
00004765  0000              add [eax],al
00004767  0000              add [eax],al
00004769  0000              add [eax],al
0000476B  0000              add [eax],al
0000476D  0000              add [eax],al
0000476F  0000              add [eax],al
00004771  0000              add [eax],al
00004773  0000              add [eax],al
00004775  0000              add [eax],al
00004777  0000              add [eax],al
00004779  0000              add [eax],al
0000477B  0000              add [eax],al
0000477D  0000              add [eax],al
0000477F  0000              add [eax],al
00004781  0000              add [eax],al
00004783  0000              add [eax],al
00004785  0000              add [eax],al
00004787  0000              add [eax],al
00004789  0000              add [eax],al
0000478B  0000              add [eax],al
0000478D  0000              add [eax],al
0000478F  0000              add [eax],al
00004791  0000              add [eax],al
00004793  0000              add [eax],al
00004795  0000              add [eax],al
00004797  0000              add [eax],al
00004799  0000              add [eax],al
0000479B  0000              add [eax],al
0000479D  0000              add [eax],al
0000479F  0000              add [eax],al
000047A1  0000              add [eax],al
000047A3  0000              add [eax],al
000047A5  0000              add [eax],al
000047A7  0000              add [eax],al
000047A9  0000              add [eax],al
000047AB  0000              add [eax],al
000047AD  0000              add [eax],al
000047AF  0000              add [eax],al
000047B1  0000              add [eax],al
000047B3  0000              add [eax],al
000047B5  0000              add [eax],al
000047B7  0000              add [eax],al
000047B9  0000              add [eax],al
000047BB  0000              add [eax],al
000047BD  0000              add [eax],al
000047BF  0000              add [eax],al
000047C1  0000              add [eax],al
000047C3  0000              add [eax],al
000047C5  0000              add [eax],al
000047C7  0000              add [eax],al
000047C9  0000              add [eax],al
000047CB  0000              add [eax],al
000047CD  0000              add [eax],al
000047CF  0000              add [eax],al
000047D1  0000              add [eax],al
000047D3  0000              add [eax],al
000047D5  0000              add [eax],al
000047D7  0000              add [eax],al
000047D9  0000              add [eax],al
000047DB  0000              add [eax],al
000047DD  0000              add [eax],al
000047DF  0000              add [eax],al
000047E1  0000              add [eax],al
000047E3  0000              add [eax],al
000047E5  0000              add [eax],al
000047E7  0000              add [eax],al
000047E9  0000              add [eax],al
000047EB  0000              add [eax],al
000047ED  0000              add [eax],al
000047EF  0000              add [eax],al
000047F1  0000              add [eax],al
000047F3  0000              add [eax],al
000047F5  0000              add [eax],al
000047F7  0000              add [eax],al
000047F9  0000              add [eax],al
000047FB  0000              add [eax],al
000047FD  0000              add [eax],al
000047FF  0000              add [eax],al
00004801  0000              add [eax],al
00004803  0000              add [eax],al
00004805  0000              add [eax],al
00004807  0000              add [eax],al
00004809  0000              add [eax],al
0000480B  0000              add [eax],al
0000480D  0000              add [eax],al
0000480F  0000              add [eax],al
00004811  0000              add [eax],al
00004813  0000              add [eax],al
00004815  0000              add [eax],al
00004817  0000              add [eax],al
00004819  0000              add [eax],al
0000481B  0000              add [eax],al
0000481D  0000              add [eax],al
0000481F  0000              add [eax],al
00004821  0000              add [eax],al
00004823  0000              add [eax],al
00004825  0000              add [eax],al
00004827  0000              add [eax],al
00004829  0000              add [eax],al
0000482B  0000              add [eax],al
0000482D  0000              add [eax],al
0000482F  0000              add [eax],al
00004831  0000              add [eax],al
00004833  0000              add [eax],al
00004835  0000              add [eax],al
00004837  0000              add [eax],al
00004839  0000              add [eax],al
0000483B  0000              add [eax],al
0000483D  0000              add [eax],al
0000483F  0000              add [eax],al
00004841  0000              add [eax],al
00004843  0000              add [eax],al
00004845  0000              add [eax],al
00004847  0000              add [eax],al
00004849  0000              add [eax],al
0000484B  0000              add [eax],al
0000484D  0000              add [eax],al
0000484F  0000              add [eax],al
00004851  0000              add [eax],al
00004853  0000              add [eax],al
00004855  0000              add [eax],al
00004857  0000              add [eax],al
00004859  0000              add [eax],al
0000485B  0000              add [eax],al
0000485D  0000              add [eax],al
0000485F  0000              add [eax],al
00004861  0000              add [eax],al
00004863  0000              add [eax],al
00004865  0000              add [eax],al
00004867  0000              add [eax],al
00004869  0000              add [eax],al
0000486B  0000              add [eax],al
0000486D  0000              add [eax],al
0000486F  0000              add [eax],al
00004871  0000              add [eax],al
00004873  0000              add [eax],al
00004875  0000              add [eax],al
00004877  0000              add [eax],al
00004879  0000              add [eax],al
0000487B  0000              add [eax],al
0000487D  0000              add [eax],al
0000487F  0000              add [eax],al
00004881  0000              add [eax],al
00004883  0000              add [eax],al
00004885  0000              add [eax],al
00004887  0000              add [eax],al
00004889  0000              add [eax],al
0000488B  0000              add [eax],al
0000488D  0000              add [eax],al
0000488F  0000              add [eax],al
00004891  0000              add [eax],al
00004893  0000              add [eax],al
00004895  0000              add [eax],al
00004897  0000              add [eax],al
00004899  0000              add [eax],al
0000489B  0000              add [eax],al
0000489D  0000              add [eax],al
0000489F  0000              add [eax],al
000048A1  0000              add [eax],al
000048A3  0000              add [eax],al
000048A5  0000              add [eax],al
000048A7  0000              add [eax],al
000048A9  0000              add [eax],al
000048AB  0000              add [eax],al
000048AD  0000              add [eax],al
000048AF  0000              add [eax],al
000048B1  0000              add [eax],al
000048B3  0000              add [eax],al
000048B5  0000              add [eax],al
000048B7  0000              add [eax],al
000048B9  0000              add [eax],al
000048BB  0000              add [eax],al
000048BD  0000              add [eax],al
000048BF  0000              add [eax],al
000048C1  0000              add [eax],al
000048C3  0000              add [eax],al
000048C5  0000              add [eax],al
000048C7  0000              add [eax],al
000048C9  0000              add [eax],al
000048CB  0000              add [eax],al
000048CD  0000              add [eax],al
000048CF  0000              add [eax],al
000048D1  0000              add [eax],al
000048D3  0000              add [eax],al
000048D5  0000              add [eax],al
000048D7  0000              add [eax],al
000048D9  0000              add [eax],al
000048DB  0000              add [eax],al
000048DD  0000              add [eax],al
000048DF  0000              add [eax],al
000048E1  0000              add [eax],al
000048E3  0000              add [eax],al
000048E5  0000              add [eax],al
000048E7  0000              add [eax],al
000048E9  0000              add [eax],al
000048EB  0000              add [eax],al
000048ED  0000              add [eax],al
000048EF  0000              add [eax],al
000048F1  0000              add [eax],al
000048F3  0000              add [eax],al
000048F5  0000              add [eax],al
000048F7  0000              add [eax],al
000048F9  0000              add [eax],al
000048FB  0000              add [eax],al
000048FD  0000              add [eax],al
000048FF  0000              add [eax],al
00004901  0000              add [eax],al
00004903  0000              add [eax],al
00004905  0000              add [eax],al
00004907  0000              add [eax],al
00004909  0000              add [eax],al
0000490B  0000              add [eax],al
0000490D  0000              add [eax],al
0000490F  0000              add [eax],al
00004911  0000              add [eax],al
00004913  0000              add [eax],al
00004915  0000              add [eax],al
00004917  0000              add [eax],al
00004919  0000              add [eax],al
0000491B  0000              add [eax],al
0000491D  0000              add [eax],al
0000491F  0000              add [eax],al
00004921  0000              add [eax],al
00004923  0000              add [eax],al
00004925  0000              add [eax],al
00004927  0000              add [eax],al
00004929  0000              add [eax],al
0000492B  0000              add [eax],al
0000492D  0000              add [eax],al
0000492F  0000              add [eax],al
00004931  0000              add [eax],al
00004933  0000              add [eax],al
00004935  0000              add [eax],al
00004937  0000              add [eax],al
00004939  0000              add [eax],al
0000493B  0000              add [eax],al
0000493D  0000              add [eax],al
0000493F  0000              add [eax],al
00004941  0000              add [eax],al
00004943  0000              add [eax],al
00004945  0000              add [eax],al
00004947  0000              add [eax],al
00004949  0000              add [eax],al
0000494B  0000              add [eax],al
0000494D  0000              add [eax],al
0000494F  0000              add [eax],al
00004951  0000              add [eax],al
00004953  0000              add [eax],al
00004955  0000              add [eax],al
00004957  0000              add [eax],al
00004959  0000              add [eax],al
0000495B  0000              add [eax],al
0000495D  0000              add [eax],al
0000495F  0000              add [eax],al
00004961  0000              add [eax],al
00004963  0000              add [eax],al
00004965  0000              add [eax],al
00004967  0000              add [eax],al
00004969  0000              add [eax],al
0000496B  0000              add [eax],al
0000496D  0000              add [eax],al
0000496F  0000              add [eax],al
00004971  0000              add [eax],al
00004973  0000              add [eax],al
00004975  0000              add [eax],al
00004977  0000              add [eax],al
00004979  0000              add [eax],al
0000497B  0000              add [eax],al
0000497D  0000              add [eax],al
0000497F  0000              add [eax],al
00004981  0000              add [eax],al
00004983  0000              add [eax],al
00004985  0000              add [eax],al
00004987  0000              add [eax],al
00004989  0000              add [eax],al
0000498B  0000              add [eax],al
0000498D  0000              add [eax],al
0000498F  0000              add [eax],al
00004991  0000              add [eax],al
00004993  0000              add [eax],al
00004995  0000              add [eax],al
00004997  0000              add [eax],al
00004999  0000              add [eax],al
0000499B  0000              add [eax],al
0000499D  0000              add [eax],al
0000499F  0000              add [eax],al
000049A1  0000              add [eax],al
000049A3  0000              add [eax],al
000049A5  0000              add [eax],al
000049A7  0000              add [eax],al
000049A9  0000              add [eax],al
000049AB  0000              add [eax],al
000049AD  0000              add [eax],al
000049AF  0000              add [eax],al
000049B1  0000              add [eax],al
000049B3  0000              add [eax],al
000049B5  0000              add [eax],al
000049B7  0000              add [eax],al
000049B9  0000              add [eax],al
000049BB  0000              add [eax],al
000049BD  0000              add [eax],al
000049BF  0000              add [eax],al
000049C1  0000              add [eax],al
000049C3  0000              add [eax],al
000049C5  0000              add [eax],al
000049C7  0000              add [eax],al
000049C9  0000              add [eax],al
000049CB  0000              add [eax],al
000049CD  0000              add [eax],al
000049CF  0000              add [eax],al
000049D1  0000              add [eax],al
000049D3  0000              add [eax],al
000049D5  0000              add [eax],al
000049D7  0000              add [eax],al
000049D9  0000              add [eax],al
000049DB  0000              add [eax],al
000049DD  0000              add [eax],al
000049DF  0000              add [eax],al
000049E1  0000              add [eax],al
000049E3  0000              add [eax],al
000049E5  0000              add [eax],al
000049E7  0000              add [eax],al
000049E9  0000              add [eax],al
000049EB  0000              add [eax],al
000049ED  0000              add [eax],al
000049EF  0000              add [eax],al
000049F1  0000              add [eax],al
000049F3  0000              add [eax],al
000049F5  0000              add [eax],al
000049F7  0000              add [eax],al
000049F9  0000              add [eax],al
000049FB  0000              add [eax],al
000049FD  0000              add [eax],al
000049FF  0000              add [eax],al
00004A01  0000              add [eax],al
00004A03  0000              add [eax],al
00004A05  0000              add [eax],al
00004A07  0000              add [eax],al
00004A09  0000              add [eax],al
00004A0B  0000              add [eax],al
00004A0D  0000              add [eax],al
00004A0F  0000              add [eax],al
00004A11  0000              add [eax],al
00004A13  0000              add [eax],al
00004A15  0000              add [eax],al
00004A17  0000              add [eax],al
00004A19  0000              add [eax],al
00004A1B  0000              add [eax],al
00004A1D  0000              add [eax],al
00004A1F  0000              add [eax],al
00004A21  0000              add [eax],al
00004A23  0000              add [eax],al
00004A25  0000              add [eax],al
00004A27  0000              add [eax],al
00004A29  0000              add [eax],al
00004A2B  0000              add [eax],al
00004A2D  0000              add [eax],al
00004A2F  0000              add [eax],al
00004A31  0000              add [eax],al
00004A33  0000              add [eax],al
00004A35  0000              add [eax],al
00004A37  0000              add [eax],al
00004A39  0000              add [eax],al
00004A3B  0000              add [eax],al
00004A3D  0000              add [eax],al
00004A3F  0000              add [eax],al
00004A41  0000              add [eax],al
00004A43  0000              add [eax],al
00004A45  0000              add [eax],al
00004A47  0000              add [eax],al
00004A49  0000              add [eax],al
00004A4B  0000              add [eax],al
00004A4D  0000              add [eax],al
00004A4F  0000              add [eax],al
00004A51  0000              add [eax],al
00004A53  0000              add [eax],al
00004A55  0000              add [eax],al
00004A57  0000              add [eax],al
00004A59  0000              add [eax],al
00004A5B  0000              add [eax],al
00004A5D  0000              add [eax],al
00004A5F  0000              add [eax],al
00004A61  0000              add [eax],al
00004A63  0000              add [eax],al
00004A65  0000              add [eax],al
00004A67  0000              add [eax],al
00004A69  0000              add [eax],al
00004A6B  0000              add [eax],al
00004A6D  0000              add [eax],al
00004A6F  0000              add [eax],al
00004A71  0000              add [eax],al
00004A73  0000              add [eax],al
00004A75  0000              add [eax],al
00004A77  0000              add [eax],al
00004A79  0000              add [eax],al
00004A7B  0000              add [eax],al
00004A7D  0000              add [eax],al
00004A7F  0000              add [eax],al
00004A81  0000              add [eax],al
00004A83  0000              add [eax],al
00004A85  0000              add [eax],al
00004A87  0000              add [eax],al
00004A89  0000              add [eax],al
00004A8B  0000              add [eax],al
00004A8D  0000              add [eax],al
00004A8F  0000              add [eax],al
00004A91  0000              add [eax],al
00004A93  0000              add [eax],al
00004A95  0000              add [eax],al
00004A97  0000              add [eax],al
00004A99  0000              add [eax],al
00004A9B  0000              add [eax],al
00004A9D  0000              add [eax],al
00004A9F  0000              add [eax],al
00004AA1  0000              add [eax],al
00004AA3  0000              add [eax],al
00004AA5  0000              add [eax],al
00004AA7  0000              add [eax],al
00004AA9  0000              add [eax],al
00004AAB  0000              add [eax],al
00004AAD  0000              add [eax],al
00004AAF  0000              add [eax],al
00004AB1  0000              add [eax],al
00004AB3  0000              add [eax],al
00004AB5  0000              add [eax],al
00004AB7  0000              add [eax],al
00004AB9  0000              add [eax],al
00004ABB  0000              add [eax],al
00004ABD  0000              add [eax],al
00004ABF  0000              add [eax],al
00004AC1  0000              add [eax],al
00004AC3  0000              add [eax],al
00004AC5  0000              add [eax],al
00004AC7  0000              add [eax],al
00004AC9  0000              add [eax],al
00004ACB  0000              add [eax],al
00004ACD  0000              add [eax],al
00004ACF  0000              add [eax],al
00004AD1  0000              add [eax],al
00004AD3  0000              add [eax],al
00004AD5  0000              add [eax],al
00004AD7  0000              add [eax],al
00004AD9  0000              add [eax],al
00004ADB  0000              add [eax],al
00004ADD  0000              add [eax],al
00004ADF  0000              add [eax],al
00004AE1  0000              add [eax],al
00004AE3  0000              add [eax],al
00004AE5  0000              add [eax],al
00004AE7  0000              add [eax],al
00004AE9  0000              add [eax],al
00004AEB  0000              add [eax],al
00004AED  0000              add [eax],al
00004AEF  0000              add [eax],al
00004AF1  0000              add [eax],al
00004AF3  0000              add [eax],al
00004AF5  0000              add [eax],al
00004AF7  0000              add [eax],al
00004AF9  0000              add [eax],al
00004AFB  0000              add [eax],al
00004AFD  0000              add [eax],al
00004AFF  0000              add [eax],al
00004B01  0000              add [eax],al
00004B03  0000              add [eax],al
00004B05  0000              add [eax],al
00004B07  0000              add [eax],al
00004B09  0000              add [eax],al
00004B0B  0000              add [eax],al
00004B0D  0000              add [eax],al
00004B0F  0000              add [eax],al
00004B11  0000              add [eax],al
00004B13  0000              add [eax],al
00004B15  0000              add [eax],al
00004B17  0000              add [eax],al
00004B19  0000              add [eax],al
00004B1B  0000              add [eax],al
00004B1D  0000              add [eax],al
00004B1F  0000              add [eax],al
00004B21  0000              add [eax],al
00004B23  0000              add [eax],al
00004B25  0000              add [eax],al
00004B27  0000              add [eax],al
00004B29  0000              add [eax],al
00004B2B  0000              add [eax],al
00004B2D  0000              add [eax],al
00004B2F  0000              add [eax],al
00004B31  0000              add [eax],al
00004B33  0000              add [eax],al
00004B35  0000              add [eax],al
00004B37  0000              add [eax],al
00004B39  0000              add [eax],al
00004B3B  0000              add [eax],al
00004B3D  0000              add [eax],al
00004B3F  0000              add [eax],al
00004B41  0000              add [eax],al
00004B43  0000              add [eax],al
00004B45  0000              add [eax],al
00004B47  0000              add [eax],al
00004B49  0000              add [eax],al
00004B4B  0000              add [eax],al
00004B4D  0000              add [eax],al
00004B4F  0000              add [eax],al
00004B51  0000              add [eax],al
00004B53  0000              add [eax],al
00004B55  0000              add [eax],al
00004B57  0000              add [eax],al
00004B59  0000              add [eax],al
00004B5B  0000              add [eax],al
00004B5D  0000              add [eax],al
00004B5F  0000              add [eax],al
00004B61  0000              add [eax],al
00004B63  0000              add [eax],al
00004B65  0000              add [eax],al
00004B67  0000              add [eax],al
00004B69  0000              add [eax],al
00004B6B  0000              add [eax],al
00004B6D  0000              add [eax],al
00004B6F  0000              add [eax],al
00004B71  0000              add [eax],al
00004B73  0000              add [eax],al
00004B75  0000              add [eax],al
00004B77  0000              add [eax],al
00004B79  0000              add [eax],al
00004B7B  0000              add [eax],al
00004B7D  0000              add [eax],al
00004B7F  0000              add [eax],al
00004B81  0000              add [eax],al
00004B83  0000              add [eax],al
00004B85  0000              add [eax],al
00004B87  0000              add [eax],al
00004B89  0000              add [eax],al
00004B8B  0000              add [eax],al
00004B8D  0000              add [eax],al
00004B8F  0000              add [eax],al
00004B91  0000              add [eax],al
00004B93  0000              add [eax],al
00004B95  0000              add [eax],al
00004B97  0000              add [eax],al
00004B99  0000              add [eax],al
00004B9B  0000              add [eax],al
00004B9D  0000              add [eax],al
00004B9F  0000              add [eax],al
00004BA1  0000              add [eax],al
00004BA3  0000              add [eax],al
00004BA5  0000              add [eax],al
00004BA7  0000              add [eax],al
00004BA9  0000              add [eax],al
00004BAB  0000              add [eax],al
00004BAD  0000              add [eax],al
00004BAF  0000              add [eax],al
00004BB1  0000              add [eax],al
00004BB3  0000              add [eax],al
00004BB5  0000              add [eax],al
00004BB7  0000              add [eax],al
00004BB9  0000              add [eax],al
00004BBB  0000              add [eax],al
00004BBD  0000              add [eax],al
00004BBF  0000              add [eax],al
00004BC1  0000              add [eax],al
00004BC3  0000              add [eax],al
00004BC5  0000              add [eax],al
00004BC7  0000              add [eax],al
00004BC9  0000              add [eax],al
00004BCB  0000              add [eax],al
00004BCD  0000              add [eax],al
00004BCF  0000              add [eax],al
00004BD1  0000              add [eax],al
00004BD3  0000              add [eax],al
00004BD5  0000              add [eax],al
00004BD7  0000              add [eax],al
00004BD9  0000              add [eax],al
00004BDB  0000              add [eax],al
00004BDD  0000              add [eax],al
00004BDF  0000              add [eax],al
00004BE1  0000              add [eax],al
00004BE3  0000              add [eax],al
00004BE5  0000              add [eax],al
00004BE7  0000              add [eax],al
00004BE9  0000              add [eax],al
00004BEB  0000              add [eax],al
00004BED  0000              add [eax],al
00004BEF  0000              add [eax],al
00004BF1  0000              add [eax],al
00004BF3  0000              add [eax],al
00004BF5  0000              add [eax],al
00004BF7  0000              add [eax],al
00004BF9  0000              add [eax],al
00004BFB  0000              add [eax],al
00004BFD  0000              add [eax],al
00004BFF  0000              add [eax],al
00004C01  0000              add [eax],al
00004C03  0000              add [eax],al
00004C05  0000              add [eax],al
00004C07  0000              add [eax],al
00004C09  0000              add [eax],al
00004C0B  0000              add [eax],al
00004C0D  0000              add [eax],al
00004C0F  0000              add [eax],al
00004C11  0000              add [eax],al
00004C13  0000              add [eax],al
00004C15  0000              add [eax],al
00004C17  0000              add [eax],al
00004C19  0000              add [eax],al
00004C1B  0000              add [eax],al
00004C1D  0000              add [eax],al
00004C1F  0000              add [eax],al
00004C21  0000              add [eax],al
00004C23  0000              add [eax],al
00004C25  0000              add [eax],al
00004C27  0000              add [eax],al
00004C29  0000              add [eax],al
00004C2B  0000              add [eax],al
00004C2D  0000              add [eax],al
00004C2F  0000              add [eax],al
00004C31  0000              add [eax],al
00004C33  0000              add [eax],al
00004C35  0000              add [eax],al
00004C37  0000              add [eax],al
00004C39  0000              add [eax],al
00004C3B  0000              add [eax],al
00004C3D  0000              add [eax],al
00004C3F  0000              add [eax],al
00004C41  0000              add [eax],al
00004C43  0000              add [eax],al
00004C45  0000              add [eax],al
00004C47  0000              add [eax],al
00004C49  0000              add [eax],al
00004C4B  0000              add [eax],al
00004C4D  0000              add [eax],al
00004C4F  0000              add [eax],al
00004C51  0000              add [eax],al
00004C53  0000              add [eax],al
00004C55  0000              add [eax],al
00004C57  0000              add [eax],al
00004C59  0000              add [eax],al
00004C5B  0000              add [eax],al
00004C5D  0000              add [eax],al
00004C5F  0000              add [eax],al
00004C61  0000              add [eax],al
00004C63  0000              add [eax],al
00004C65  0000              add [eax],al
00004C67  0000              add [eax],al
00004C69  0000              add [eax],al
00004C6B  0000              add [eax],al
00004C6D  0000              add [eax],al
00004C6F  0000              add [eax],al
00004C71  0000              add [eax],al
00004C73  0000              add [eax],al
00004C75  0000              add [eax],al
00004C77  0000              add [eax],al
00004C79  0000              add [eax],al
00004C7B  0000              add [eax],al
00004C7D  0000              add [eax],al
00004C7F  0000              add [eax],al
00004C81  0000              add [eax],al
00004C83  0000              add [eax],al
00004C85  0000              add [eax],al
00004C87  0000              add [eax],al
00004C89  0000              add [eax],al
00004C8B  0000              add [eax],al
00004C8D  0000              add [eax],al
00004C8F  0000              add [eax],al
00004C91  0000              add [eax],al
00004C93  0000              add [eax],al
00004C95  0000              add [eax],al
00004C97  0000              add [eax],al
00004C99  0000              add [eax],al
00004C9B  0000              add [eax],al
00004C9D  0000              add [eax],al
00004C9F  0000              add [eax],al
00004CA1  0000              add [eax],al
00004CA3  0000              add [eax],al
00004CA5  0000              add [eax],al
00004CA7  0000              add [eax],al
00004CA9  0000              add [eax],al
00004CAB  0000              add [eax],al
00004CAD  0000              add [eax],al
00004CAF  0000              add [eax],al
00004CB1  0000              add [eax],al
00004CB3  0000              add [eax],al
00004CB5  0000              add [eax],al
00004CB7  0000              add [eax],al
00004CB9  0000              add [eax],al
00004CBB  0000              add [eax],al
00004CBD  0000              add [eax],al
00004CBF  0000              add [eax],al
00004CC1  0000              add [eax],al
00004CC3  0000              add [eax],al
00004CC5  0000              add [eax],al
00004CC7  0000              add [eax],al
00004CC9  0000              add [eax],al
00004CCB  0000              add [eax],al
00004CCD  0000              add [eax],al
00004CCF  0000              add [eax],al
00004CD1  0000              add [eax],al
00004CD3  0000              add [eax],al
00004CD5  0000              add [eax],al
00004CD7  0000              add [eax],al
00004CD9  0000              add [eax],al
00004CDB  0000              add [eax],al
00004CDD  0000              add [eax],al
00004CDF  0000              add [eax],al
00004CE1  0000              add [eax],al
00004CE3  0000              add [eax],al
00004CE5  0000              add [eax],al
00004CE7  0000              add [eax],al
00004CE9  0000              add [eax],al
00004CEB  0000              add [eax],al
00004CED  0000              add [eax],al
00004CEF  0000              add [eax],al
00004CF1  0000              add [eax],al
00004CF3  0000              add [eax],al
00004CF5  0000              add [eax],al
00004CF7  0000              add [eax],al
00004CF9  0000              add [eax],al
00004CFB  0000              add [eax],al
00004CFD  0000              add [eax],al
00004CFF  0000              add [eax],al
00004D01  0000              add [eax],al
00004D03  0000              add [eax],al
00004D05  0000              add [eax],al
00004D07  0000              add [eax],al
00004D09  0000              add [eax],al
00004D0B  0000              add [eax],al
00004D0D  0000              add [eax],al
00004D0F  0000              add [eax],al
00004D11  0000              add [eax],al
00004D13  0000              add [eax],al
00004D15  0000              add [eax],al
00004D17  0000              add [eax],al
00004D19  0000              add [eax],al
00004D1B  0000              add [eax],al
00004D1D  0000              add [eax],al
00004D1F  0000              add [eax],al
00004D21  0000              add [eax],al
00004D23  0000              add [eax],al
00004D25  0000              add [eax],al
00004D27  0000              add [eax],al
00004D29  0000              add [eax],al
00004D2B  0000              add [eax],al
00004D2D  0000              add [eax],al
00004D2F  0000              add [eax],al
00004D31  0000              add [eax],al
00004D33  0000              add [eax],al
00004D35  0000              add [eax],al
00004D37  0000              add [eax],al
00004D39  0000              add [eax],al
00004D3B  0000              add [eax],al
00004D3D  0000              add [eax],al
00004D3F  0000              add [eax],al
00004D41  0000              add [eax],al
00004D43  0000              add [eax],al
00004D45  0000              add [eax],al
00004D47  0000              add [eax],al
00004D49  0000              add [eax],al
00004D4B  0000              add [eax],al
00004D4D  0000              add [eax],al
00004D4F  0000              add [eax],al
00004D51  0000              add [eax],al
00004D53  0000              add [eax],al
00004D55  0000              add [eax],al
00004D57  0000              add [eax],al
00004D59  0000              add [eax],al
00004D5B  0000              add [eax],al
00004D5D  0000              add [eax],al
00004D5F  0000              add [eax],al
00004D61  0000              add [eax],al
00004D63  0000              add [eax],al
00004D65  0000              add [eax],al
00004D67  0000              add [eax],al
00004D69  0000              add [eax],al
00004D6B  0000              add [eax],al
00004D6D  0000              add [eax],al
00004D6F  0000              add [eax],al
00004D71  0000              add [eax],al
00004D73  0000              add [eax],al
00004D75  0000              add [eax],al
00004D77  0000              add [eax],al
00004D79  0000              add [eax],al
00004D7B  0000              add [eax],al
00004D7D  0000              add [eax],al
00004D7F  0000              add [eax],al
00004D81  0000              add [eax],al
00004D83  0000              add [eax],al
00004D85  0000              add [eax],al
00004D87  0000              add [eax],al
00004D89  0000              add [eax],al
00004D8B  0000              add [eax],al
00004D8D  0000              add [eax],al
00004D8F  0000              add [eax],al
00004D91  0000              add [eax],al
00004D93  0000              add [eax],al
00004D95  0000              add [eax],al
00004D97  0000              add [eax],al
00004D99  0000              add [eax],al
00004D9B  0000              add [eax],al
00004D9D  0000              add [eax],al
00004D9F  0000              add [eax],al
00004DA1  0000              add [eax],al
00004DA3  0000              add [eax],al
00004DA5  0000              add [eax],al
00004DA7  0000              add [eax],al
00004DA9  0000              add [eax],al
00004DAB  0000              add [eax],al
00004DAD  0000              add [eax],al
00004DAF  0000              add [eax],al
00004DB1  0000              add [eax],al
00004DB3  0000              add [eax],al
00004DB5  0000              add [eax],al
00004DB7  0000              add [eax],al
00004DB9  0000              add [eax],al
00004DBB  0000              add [eax],al
00004DBD  0000              add [eax],al
00004DBF  0000              add [eax],al
00004DC1  0000              add [eax],al
00004DC3  0000              add [eax],al
00004DC5  0000              add [eax],al
00004DC7  0000              add [eax],al
00004DC9  0000              add [eax],al
00004DCB  0000              add [eax],al
00004DCD  0000              add [eax],al
00004DCF  0000              add [eax],al
00004DD1  0000              add [eax],al
00004DD3  0000              add [eax],al
00004DD5  0000              add [eax],al
00004DD7  0000              add [eax],al
00004DD9  0000              add [eax],al
00004DDB  0000              add [eax],al
00004DDD  0000              add [eax],al
00004DDF  0000              add [eax],al
00004DE1  0000              add [eax],al
00004DE3  0000              add [eax],al
00004DE5  0000              add [eax],al
00004DE7  0000              add [eax],al
00004DE9  0000              add [eax],al
00004DEB  0000              add [eax],al
00004DED  0000              add [eax],al
00004DEF  0000              add [eax],al
00004DF1  0000              add [eax],al
00004DF3  0000              add [eax],al
00004DF5  0000              add [eax],al
00004DF7  0000              add [eax],al
00004DF9  0000              add [eax],al
00004DFB  0000              add [eax],al
00004DFD  0000              add [eax],al
00004DFF  0000              add [eax],al
00004E01  0000              add [eax],al
00004E03  0000              add [eax],al
00004E05  0000              add [eax],al
00004E07  0000              add [eax],al
00004E09  0000              add [eax],al
00004E0B  0000              add [eax],al
00004E0D  0000              add [eax],al
00004E0F  0000              add [eax],al
00004E11  0000              add [eax],al
00004E13  0000              add [eax],al
00004E15  0000              add [eax],al
00004E17  0000              add [eax],al
00004E19  0000              add [eax],al
00004E1B  0000              add [eax],al
00004E1D  0000              add [eax],al
00004E1F  0000              add [eax],al
00004E21  0000              add [eax],al
00004E23  0000              add [eax],al
00004E25  0000              add [eax],al
00004E27  0000              add [eax],al
00004E29  0000              add [eax],al
00004E2B  0000              add [eax],al
00004E2D  0000              add [eax],al
00004E2F  0000              add [eax],al
00004E31  0000              add [eax],al
00004E33  0000              add [eax],al
00004E35  0000              add [eax],al
00004E37  0000              add [eax],al
00004E39  0000              add [eax],al
00004E3B  0000              add [eax],al
00004E3D  0000              add [eax],al
00004E3F  0000              add [eax],al
00004E41  0000              add [eax],al
00004E43  0000              add [eax],al
00004E45  0000              add [eax],al
00004E47  0000              add [eax],al
00004E49  0000              add [eax],al
00004E4B  0000              add [eax],al
00004E4D  0000              add [eax],al
00004E4F  0000              add [eax],al
00004E51  0000              add [eax],al
00004E53  0000              add [eax],al
00004E55  0000              add [eax],al
00004E57  0000              add [eax],al
00004E59  0000              add [eax],al
00004E5B  0000              add [eax],al
00004E5D  0000              add [eax],al
00004E5F  0000              add [eax],al
00004E61  0000              add [eax],al
00004E63  0000              add [eax],al
00004E65  0000              add [eax],al
00004E67  0000              add [eax],al
00004E69  0000              add [eax],al
00004E6B  0000              add [eax],al
00004E6D  0000              add [eax],al
00004E6F  0000              add [eax],al
00004E71  0000              add [eax],al
00004E73  0000              add [eax],al
00004E75  0000              add [eax],al
00004E77  0000              add [eax],al
00004E79  0000              add [eax],al
00004E7B  0000              add [eax],al
00004E7D  0000              add [eax],al
00004E7F  0000              add [eax],al
00004E81  0000              add [eax],al
00004E83  0000              add [eax],al
00004E85  0000              add [eax],al
00004E87  0000              add [eax],al
00004E89  0000              add [eax],al
00004E8B  0000              add [eax],al
00004E8D  0000              add [eax],al
00004E8F  0000              add [eax],al
00004E91  0000              add [eax],al
00004E93  0000              add [eax],al
00004E95  0000              add [eax],al
00004E97  0000              add [eax],al
00004E99  0000              add [eax],al
00004E9B  0000              add [eax],al
00004E9D  0000              add [eax],al
00004E9F  0000              add [eax],al
00004EA1  0000              add [eax],al
00004EA3  0000              add [eax],al
00004EA5  0000              add [eax],al
00004EA7  0000              add [eax],al
00004EA9  0000              add [eax],al
00004EAB  0000              add [eax],al
00004EAD  0000              add [eax],al
00004EAF  0000              add [eax],al
00004EB1  0000              add [eax],al
00004EB3  0000              add [eax],al
00004EB5  0000              add [eax],al
00004EB7  0000              add [eax],al
00004EB9  0000              add [eax],al
00004EBB  0000              add [eax],al
00004EBD  0000              add [eax],al
00004EBF  0000              add [eax],al
00004EC1  0000              add [eax],al
00004EC3  0000              add [eax],al
00004EC5  0000              add [eax],al
00004EC7  0000              add [eax],al
00004EC9  0000              add [eax],al
00004ECB  0000              add [eax],al
00004ECD  0000              add [eax],al
00004ECF  0000              add [eax],al
00004ED1  0000              add [eax],al
00004ED3  0000              add [eax],al
00004ED5  0000              add [eax],al
00004ED7  0000              add [eax],al
00004ED9  0000              add [eax],al
00004EDB  0000              add [eax],al
00004EDD  0000              add [eax],al
00004EDF  0000              add [eax],al
00004EE1  0000              add [eax],al
00004EE3  0000              add [eax],al
00004EE5  0000              add [eax],al
00004EE7  0000              add [eax],al
00004EE9  0000              add [eax],al
00004EEB  0000              add [eax],al
00004EED  0000              add [eax],al
00004EEF  0000              add [eax],al
00004EF1  0000              add [eax],al
00004EF3  0000              add [eax],al
00004EF5  0000              add [eax],al
00004EF7  0000              add [eax],al
00004EF9  0000              add [eax],al
00004EFB  0000              add [eax],al
00004EFD  0000              add [eax],al
00004EFF  0000              add [eax],al
00004F01  0000              add [eax],al
00004F03  0000              add [eax],al
00004F05  0000              add [eax],al
00004F07  0000              add [eax],al
00004F09  0000              add [eax],al
00004F0B  0000              add [eax],al
00004F0D  0000              add [eax],al
00004F0F  0000              add [eax],al
00004F11  0000              add [eax],al
00004F13  0000              add [eax],al
00004F15  0000              add [eax],al
00004F17  0000              add [eax],al
00004F19  0000              add [eax],al
00004F1B  0000              add [eax],al
00004F1D  0000              add [eax],al
00004F1F  0000              add [eax],al
00004F21  0000              add [eax],al
00004F23  0000              add [eax],al
00004F25  0000              add [eax],al
00004F27  0000              add [eax],al
00004F29  0000              add [eax],al
00004F2B  0000              add [eax],al
00004F2D  0000              add [eax],al
00004F2F  0000              add [eax],al
00004F31  0000              add [eax],al
00004F33  0000              add [eax],al
00004F35  0000              add [eax],al
00004F37  0000              add [eax],al
00004F39  0000              add [eax],al
00004F3B  0000              add [eax],al
00004F3D  0000              add [eax],al
00004F3F  0000              add [eax],al
00004F41  0000              add [eax],al
00004F43  0000              add [eax],al
00004F45  0000              add [eax],al
00004F47  0000              add [eax],al
00004F49  0000              add [eax],al
00004F4B  0000              add [eax],al
00004F4D  0000              add [eax],al
00004F4F  0000              add [eax],al
00004F51  0000              add [eax],al
00004F53  0000              add [eax],al
00004F55  0000              add [eax],al
00004F57  0000              add [eax],al
00004F59  0000              add [eax],al
00004F5B  0000              add [eax],al
00004F5D  0000              add [eax],al
00004F5F  0000              add [eax],al
00004F61  0000              add [eax],al
00004F63  0000              add [eax],al
00004F65  0000              add [eax],al
00004F67  0000              add [eax],al
00004F69  0000              add [eax],al
00004F6B  0000              add [eax],al
00004F6D  0000              add [eax],al
00004F6F  0000              add [eax],al
00004F71  0000              add [eax],al
00004F73  0000              add [eax],al
00004F75  0000              add [eax],al
00004F77  0000              add [eax],al
00004F79  0000              add [eax],al
00004F7B  0000              add [eax],al
00004F7D  0000              add [eax],al
00004F7F  0000              add [eax],al
00004F81  0000              add [eax],al
00004F83  0000              add [eax],al
00004F85  0000              add [eax],al
00004F87  0000              add [eax],al
00004F89  0000              add [eax],al
00004F8B  0000              add [eax],al
00004F8D  0000              add [eax],al
00004F8F  0000              add [eax],al
00004F91  0000              add [eax],al
00004F93  0000              add [eax],al
00004F95  0000              add [eax],al
00004F97  0000              add [eax],al
00004F99  0000              add [eax],al
00004F9B  0000              add [eax],al
00004F9D  0000              add [eax],al
00004F9F  0000              add [eax],al
00004FA1  0000              add [eax],al
00004FA3  0000              add [eax],al
00004FA5  0000              add [eax],al
00004FA7  0000              add [eax],al
00004FA9  0000              add [eax],al
00004FAB  0000              add [eax],al
00004FAD  0000              add [eax],al
00004FAF  0000              add [eax],al
00004FB1  0000              add [eax],al
00004FB3  0000              add [eax],al
00004FB5  0000              add [eax],al
00004FB7  0000              add [eax],al
00004FB9  0000              add [eax],al
00004FBB  0000              add [eax],al
00004FBD  0000              add [eax],al
00004FBF  0000              add [eax],al
00004FC1  0000              add [eax],al
00004FC3  0000              add [eax],al
00004FC5  0000              add [eax],al
00004FC7  0000              add [eax],al
00004FC9  0000              add [eax],al
00004FCB  0000              add [eax],al
00004FCD  0000              add [eax],al
00004FCF  0000              add [eax],al
00004FD1  0000              add [eax],al
00004FD3  0000              add [eax],al
00004FD5  0000              add [eax],al
00004FD7  0000              add [eax],al
00004FD9  0000              add [eax],al
00004FDB  0000              add [eax],al
00004FDD  0000              add [eax],al
00004FDF  0000              add [eax],al
00004FE1  0000              add [eax],al
00004FE3  0000              add [eax],al
00004FE5  0000              add [eax],al
00004FE7  0000              add [eax],al
00004FE9  0000              add [eax],al
00004FEB  0000              add [eax],al
00004FED  0000              add [eax],al
00004FEF  0000              add [eax],al
00004FF1  0000              add [eax],al
00004FF3  0000              add [eax],al
00004FF5  0000              add [eax],al
00004FF7  0000              add [eax],al
00004FF9  0000              add [eax],al
00004FFB  0000              add [eax],al
00004FFD  0000              add [eax],al
00004FFF  0000              add [eax],al
00005001  0000              add [eax],al
00005003  0000              add [eax],al
00005005  0000              add [eax],al
00005007  0000              add [eax],al
00005009  0000              add [eax],al
0000500B  0000              add [eax],al
0000500D  0000              add [eax],al
0000500F  0000              add [eax],al
00005011  0000              add [eax],al
00005013  00                db 0x00
